(dp0
S'Lemongrass and ginger mussels'
p1
ccopy_reg
_reconstructor
p2
(c__main__
Data
p3
c__builtin__
tuple
p4
(S'http://www.bbc.co.uk/food/recipes/lemongrass_and_ginger_63752'
p5
S'James Martin'
p6
(lp7
S'unsalted butter'
p8
aS'shallots'
p9
aS'lemongrass stalks, tough outer leaves discarded'
p10
aS'garlic cloves'
p11
aS'piece fresh root ginger, peeled'
p12
aS'red chillies (depending on their heat)'
p13
aS'white wine'
p14
aS'coconut water'
p15
aS'coconut cream'
p16
aS'mussels, rinsed, scrubbed'
p17
aS'olive oil'
p18
aS'loaf sourdough bread'
p19
aS'roughly chopped fresh coriander leaves'
p20
aS'salt and freshly ground black pepper'
p21
atp22
tp23
Rp24
sS'Spiced cauliflower with toasted coconut and red lentils'
p25
g2
(g3
g4
(S'http://www.bbc.co.uk/food/recipes/spiced_cauliflower_with_77223'
p26
S'Glynn Purnell'
p27
(lp28
S'large fresh coriander'
p29
aS'vegetable oil'
p30
aS'large carrots'
p31
aS'caster sugar'
p32
aS'sherry vinegar'
p33
aS'sunflower oil'
p34
aS'dark soy sauce'
p35
aS'butter'
p36
aS'mild curry powder'
p37
aS'ground cumin'
p38
aS'ground ginger'
p39
aS'cinnamon stick'
p40
aS'cloves'
p41
aS'coriander seeds'
p42
aS'fenugreek seeds'
p43
aS'dried chilli flakes'
p44
aS'large cauliflower, root and outer leaves removed'
p45
aS'pints vegetable stock'
p46
aS'butter'
p47
aS'lime juice'
p48
aS'sunflower oil'
p49
aS'onion'
p50
aS'garlic clove'
p51
aS'mild curry powder'
p52
aS'red lentils'
p53
aS'vegetable stock'
p54
aS'red chilli, seeds removed'
p55
aS'chopped fresh coriander'
p56
aS'lime'
p57
aS'x tin coconut milk'
p58
aS'lime leaf'
p59
aS'fresh mint leaves'
p60
aS'salt'
p61
aS'fresh coconut, split open'
p62
atp63
tp64
Rp65
sS'Blueberry, blackcurrant and basil curd'
p66
g2
(g3
g4
(S'http://www.bbc.co.uk/food/recipes/blueberry_and_basil_curd_56487'
p67
S'Gary Murdock and Pete Taylor'
p68
(lp69
S'mixed blueberries and blackcurrants'
p70
aS'lemon'
p71
aS'butter'
p72
aS'caster sugar'
p73
aS'small free-range eggs'
p74
aS'purple basil leaves'
p75
atp76
tp77
Rp78
sS'Seafood pasta with garlic bread'
p79
g2
(g3
g4
(S'http://www.bbc.co.uk/food/recipes/seafood_pasta_with_73534'
p80
S'The Hairy Bikers'
p81
(lp82
S'slices ciabatta'
p83
aS'olive oil'
p84
aS'butter'
p85
aS'clove garlic'
p86
aS'finely chopped parsley'
p87
aS'fresh pasta such as linguine or tagliatelle'
p88
aS'olive oil'
p89
aS'banana shallot'
p90
aS'clove garlic'
p91
aS'dried chilli flakes'
p92
aS'cherry tomatoes'
p93
aS'vermouth'
p94
aS'fresh mussels'
p95
aS'raw tiger prawns, peeled'
p96
aS'medium squid, cleaned'
p97
aS'creme fraiche'
p98
aS'small tarragon leaves'
p99
aS'small basil leaves, shredded'
p100
aS'lemon'
p101
aS'sea salt and freshly ground black pepper'
p102
aS'salad leaves, lightly dressed with olive oil and lemon juice'
p103
atp104
tp105
Rp106
sS'Kentish cobnut cake and apple compote'
p107
g2
(g3
g4
(S'http://www.bbc.co.uk/food/recipes/kentishcobnutcakeand_92135'
p108
S'The Hairy Bikers'
p109
(lp110
S'self-raising flour'
p111
aS'butter, melted'
p112
aS'ground ginger'
p113
aS'light soft brown sugar'
p114
aS'free-range eggs'
p115
aS'double cream'
p116
aS'cobnuts, shells removed'
p117
aS'butter'
p118
aS'apples, peeled, cores removed'
p119
aS'caster sugar'
p120
aS'ground cinnamon'
p121
aS'double cream, lightly whipped'
p122
atp123
tp124
Rp125
sS'The bramble'
p126
g2
(g3
g4
(S'http://www.bbc.co.uk/food/recipes/the_bramble_39344'
p127
S'Wayne Collins'
p128
(lp129
S'gin'
p130
aS'lemon juice'
p131
aS'sugar syrup'
p132
aS'blackberry liqueur'
p133
aS'slice of lemon and a blackberry'
p134
atp135
tp136
Rp137
sS'Roast teal, purple sprouting broccoli and salsify'
p138
g2
(g3
g4
(S'http://www.bbc.co.uk/food/recipes/roasttealpurplesprou_90877'
p139
S'Tom Kitchin'
p140
(lp141
S'vegetable oil'
p142
aS'butter'
p143
aS'olive oil'
p144
aS'teal'
p145
aS'lemon'
p146
aS'salsify roots'
p147
aS'chicken stock'
p148
aS'purple sprouting broccoli'
p149
aS'pancetta'
p150
aS'plain flour'
p151
aS'ready-made game jus'
p152
atp153
tp154
Rp155
sS'New England-style clam chowder with crunchy thyme breadcrumbs'
p156
g2
(g3
g4
(S'http://www.bbc.co.uk/food/recipes/newenglandstyleclamc_93670'
p157
S'Sophie Dahl'
p158
(lp159
S'olive oil'
p160
aS'Knob of butter'
p161
aS'onion, peeled'
p162
aS'celery sticks'
p163
aS'bay leaves'
p164
aS'sprigs fresh thyme'
p165
aS'clams'
p166
aS'ear sweetcorn'
p167
aS'chicken stock'
p168
aS'red potatoes'
p169
aS'single cream'
p170
aS'Handful fresh parsley'
p171
aS'Salt and freshly ground black pepper'
p172
aS'slice spelt bread'
p173
aS'lemon'
p174
aS'olive oil'
p175
aS'sprigs fresh thyme'
p176
aS'Salt and freshly ground black pepper'
p177
aS'olive oil'
p178
aS'slices pancetta'
p179
atp180
tp181
Rp182
sS'Mini chocolate puddings with glazed satsumas'
p183
g2
(g3
g4
(S'http://www.bbc.co.uk/food/recipes/minichocolatepudding_84786'
p184
S'Lesley Waters'
p185
(lp186
S'unsalted butter'
p187
aS'self-raising flour'
p188
aS'brown sugar'
p189
aS'free-range egg'
p190
aS'cocoa powder'
p191
aS'satsumas'
p192
aS'icing sugar'
p193
aS'milk'
p194
aS'double cream'
p195
aS'brown sugar'
p196
aS'cocoa powder'
p197
aS'unsalted butter'
p198
atp199
tp200
Rp201
sS'Blueberry galette with chocolate peanut ice cream'
p202
g2
(g3
g4
(S'http://www.bbc.co.uk/food/recipes/blueberry_galette_with_46523'
p203
S'James Martin'
p204
(lp205
S'full-fat milk'
p206
aS'double cream'
p207
aS'caster sugar'
p208
aS'free-range egg yolks'
p209
aS'chocolate and peanut bars'
p210
aS'plain flour'
p211
aS'unsalted butter'
p212
aS'caster sugar'
p213
aS'free-range egg yolks'
p214
aS'fresh blueberries'
p215
aS'vanilla pod, split in half lengthways'
p216
aS'cornflour'
p217
aS'lemon'
p218
aS'demerara sugar'
p219
atp220
tp221
Rp222
sS'Grilled chicken with morel sauce, Parmentier potatoes and baby vegetables'
p223
g2
(g3
g4
(S'http://www.bbc.co.uk/food/recipes/grilled_chicken_with_34352'
p224
S'Ed Baines'
p225
(lp226
S'butter'
p227
aS'olive oil'
p228
aS'potatoes'
p229
aS'garlic clove'
p230
aS'onion'
p231
aS'sprigs rosemary'
p232
aS'salt and freshly ground black pepper'
p233
aS'lemon'
p234
aS'butter'
p235
aS'large shallot'
p236
aS'handfuls morel mushrooms'
p237
aS'generous splash Madeira'
p238
aS'chicken stock (preferably white chicken stock)'
p239
aS'double cream'
p240
aS'chicken breasts'
p241
aS'baby courgettes'
p242
aS'baby leeks'
p243
aS'sugar snap peas'
p244
aS'butter'
p245
atp246
tp247
Rp248
sS'Salmon ceviche with fennel salad'
p249
g2
(g3
g4
(S'http://www.bbc.co.uk/food/recipes/salmoncevichewithfen_85539'
p250
S'Stuart Gillies'
p251
(lp252
S'organic salmon fillet'
p253
aS'rock salt'
p254
aS'red chillies'
p255
aS'pink grapefruit juice'
p256
aS'lime zest'
p257
aS'lime juice (about limes)'
p258
aS'caster sugar'
p259
aS'coriander leaves'
p260
aS'fennel bulb'
p261
aS'baby salad leaves'
p262
atp263
tp264
Rp265
sS'Pan-fried pheasant breast with gamekeepers pie'
p266
g2
(g3
g4
(S'http://www.bbc.co.uk/food/recipes/pan-fried_pheasant_71343'
p267
S'The Hairy Bikers'
p268
(lp269
S'young whole pheasants (preferably hens)'
p270
aS'crushed sea salt'
p271
aS'goose fat'
p272
aS'garlic cloves, peeled'
p273
aS'garam masala'
p274
aS'cinnamon stick'
p275
aS'bay leaves'
p276
aS'whole black peppercorns'
p277
aS'olive oil'
p278
aS'small onion'
p279
aS'celery stalk'
p280
aS'carrot'
p281
aS'sprigs fresh thyme'
p282
aS'pints hot chicken stock'
p283
aS'floury potatoes such as Maris Piper'
p284
aS'free-range egg yolk'
p285
aS'butter'
p286
aS'large freshly grated nutmeg'
p287
aS'white pepper'
p288
aS'double cream'
p289
aS'small onion, peeled'
p290
aS'celery stalk, trimmed'
p291
aS'carrot, peeled'
p292
aS'plain flour'
p293
aS'swede, peeled'
p294
aS'carrots, peeled'
p295
aS'floury potatoes, such as Maris Piper, peeled'
p296
aS'vegetable stock cube'
p297
aS'butter'
p298
aS'salt and freshly ground black pepper'
p299
aS'salt and freshly ground black pepper'
p300
aS'olive oil'
p301
aS'sprigs fresh thyme'
p302
aS'redcurrant jelly'
p303
atp304
tp305
Rp306
sS'Sausage and greens'
p307
g2
(g3
g4
(S'http://www.bbc.co.uk/food/recipes/sausage_and_greens_94811'
p308
S'Nigel Slater'
p309
(lp310
S'curly kale'
p311
aS'cooking chorizo'
p312
aS'skinned whole almonds'
p313
aS'a little groundnut or sunflower oil'
p314
aS'a clove of garlic'
p315
aS'sea salt flakes'
p316
atp317
tp318
Rp319
sS'Moroccan lamb tagine with lemon and pomegranate couscous'
p320
g2
(g3
g4
(S'http://www.bbc.co.uk/food/recipes/moroccanlambtaginewi_84062'
p321
S'Rachel Allen'
p322
(lp323
S'olive oil'
p324
aS'garlic cloves'
p325
aS'onions'
p326
aS'grated'
p327
aS'coriander seeds'
p328
aS'ground cinnamon'
p329
aS'sea salt and freshly ground black pepper'
p330
aS'shoulder of lamb, boned'
p331
aS'tomato puree'
p332
aS'ripe tomatoes or X can tomatoes'
p333
aS'honey'
p334
aS'large or small pomegranates'
p335
aS'couscous'
p336
aS'olive oil'
p337
aS'lemons'
p338
aS'pints boiling chicken stock or water'
p339
aS'sea salt and freshly ground black pepper'
p340
aS'chopped'
p341
aS'lime'
p342
aS'bowl Greek yoghurt'
p343
atp344
tp345
Rp346
sS'Potato salad with lovage'
p347
g2
(g3
g4
(S'http://www.bbc.co.uk/food/recipes/potato_salad_with_lovage_55317'
p348
S'Valentine Warner'
p349
(lp350
S'free-range egg yolks'
p351
aS'Dijon mustard'
p352
aS'lemon'
p353
aS'white wine vinegar'
p354
aS'extra virgin olive oil'
p355
aS'sunflower oil'
p356
aS'cornichons'
p357
aS'freshly ground black pepper'
p358
aS'capers'
p359
aS'large garlic clove'
p360
aS'anchovies in oil'
p361
aS'small fresh dill'
p362
aS'small fresh tarragon'
p363
aS'small fresh lovage'
p364
aS'small red onion'
p365
aS'Pink Fir Apple potatoes'
p366
aS'salt'
p367
atp368
tp369
Rp370
sS'No-fuss fruit tart'
p371
g2
(g3
g4
(S'http://www.bbc.co.uk/food/recipes/no-fuss_fruit_tart_11008'
p372
S'Nigella Lawson'
p373
(lp374
S'digestive biscuits'
p375
aS'softened unsalted butter'
p376
aS'cream cheese'
p377
aS'ready-made lemon curd'
p378
aS'fresh blueberries'
p379
aS'fresh blackberries'
p380
aS'fresh raspberries'
p381
aS'fresh redcurrants or pomegranate seeds'
p382
aS'fresh small strawberries, half hulled'
p383
atp384
tp385
Rp386
sS'Hangover beef salad'
p387
g2
(g3
g4
(S'http://www.bbc.co.uk/food/recipes/hangover_beef_salad_06490'
p388
S'Nigel Slater'
p389
(lp390
S'Puy lentils or other small'
p391
aS'stock or water'
p392
aS'medium-sized onion'
p393
aS'fresh bay leaf'
p394
aS'garlic clove'
p395
aS'sea salt flakes'
p396
aS'red wine vinegar'
p397
aS'Dijon mustard'
p398
aS'ground black pepper'
p399
aS'olive oil'
p400
aS'short lump of fresh horseradish'
p401
aS'fresh flatleaf parsley'
p402
aS'leftover rare roast beef, thinly sliced or slices per person)'
p403
atp404
tp405
Rp406
sS'Elderflower cordial'
p407
g2
(g3
g4
(S'http://www.bbc.co.uk/food/recipes/elderflower_cordial_21346'
p408
S'Mary Berry'
p409
(lp410
S'caster sugar'
p411
aS'lemons'
p412
aS'about elderflowers'
p413
aS'citric acid'
p414
aS'Campden tablets'
p415
atp416
tp417
Rp418
sS'Tex-Mex brick chicken'
p419
g2
(g3
g4
(S'http://www.bbc.co.uk/food/recipes/tex-mex_brick_chicken_47381'
p420
S'The Hairy Bikers'
p421
(lp422
S'dried chipotle chillies'
p423
aS'habanero chilli'
p424
aS'generous sea salt flakes'
p425
aS'olive oil'
p426
aS'orange'
p427
aS'fresh oregano leaves'
p428
aS'garlic cloves'
p429
aS'large whole chicken, spatchcocked and de-boned'
p430
aS'large knob of butter'
p431
aS'onion'
p432
aS'garlic cloves'
p433
aS'fresh coriander, stalks chopped'
p434
aS'x tins good-quality Mexican black beans'
p435
aS'small red chilli, finely chopped'
p436
aS'soft tacos'
p437
aS'grated Mexican-style firm cheese, such as Oaxaca (available from specialist cheese shops or online; alternatively'
p438
aS'ready-made tomato salsa'
p439
aS'handfuls crisp lettuce such as Iceberg or Romaine lettuce'
p440
atp441
tp442
Rp443
sS'Asparagus, pea, feta and mint salad'
p444
g2
(g3
g4
(S'http://www.bbc.co.uk/food/recipes/asparagus_pea_feta_and_41658'
p445
S'Freddy Bird'
p446
(lp447
S'handfuls freshly podded peas'
p448
aS'skinny asparagus'
p449
aS'feta cheese'
p450
aS'chopped mint leaves'
p451
aS'lemon juice'
p452
aS'olive oil'
p453
aS'salt and freshly ground black pepper'
p454
aS'black onion seeds'
p455
atp456
tp457
Rp458
sS'Game sausage roll with wild mushrooms and pickled walnuts'
p459
g2
(g3
g4
(S'http://www.bbc.co.uk/food/recipes/game_sausage_roll_with_85483'
p460
S'Bryn Williams'
p461
(lp462
S'minced pork belly'
p463
aS'minced mixed game (such as venison'
p464
aS'free-range eggs, plus free-range egg yolk, beaten'
p465
aS'small fresh thyme leaves'
p466
aS'cooked chestnuts'
p467
aS'allspice'
p468
aS'x packet puff pastry'
p469
aS'plain flour'
p470
aS'salt and freshly ground black pepper'
p471
aS'butter'
p472
aS'wild mushrooms'
p473
aS'double cream'
p474
aS'Dijon mustard'
p475
aS'pickled walnuts, drained'
p476
aS'dandelion leaves'
p477
atp478
tp479
Rp480
sS'Vegetable garden risotto'
p481
g2
(g3
g4
(S'http://www.bbc.co.uk/food/recipes/vegetable_garden_risotto_60989'
p482
S'The Hairy Bikers'
p483
(lp484
S'broad beans'
p485
aS'butter'
p486
aS'olive oil'
p487
aS'chopped fresh mint leaves'
p488
aS'onion'
p489
aS'garlic cloves'
p490
aS'sprigs fresh thyme'
p491
aS'long strip lemon zest'
p492
aS'bay leaf'
p493
aS'Arborio risotto rice'
p494
aS'dry white wine'
p495
aS'pint hot vegetable stock'
p496
aS'peas'
p497
aS'asparagus'
p498
aS'fresh runner beans'
p499
aS'feta cheese'
p500
aS'sea salt flakes and freshly ground black pepper'
p501
aS'parmesan shavings'
p502
atp503
tp504
Rp505
sS'Seared salmon and chorizo salad'
p506
g2
(g3
g4
(S'http://www.bbc.co.uk/food/recipes/seared_salmon_and_30765'
p507
S'Simon Rimmer'
p508
(lp509
S'olive oil'
p510
aS'chorizo'
p511
aS'salmon fillet'
p512
aS'sherry vinegar'
p513
aS'heaped whole grain mustard'
p514
aS'extra virgin olive oil'
p515
aS'garlic clove'
p516
aS'rocket'
p517
aS'watercress'
p518
aS'shallot'
p519
aS'sunblush tomatoes'
p520
atp521
tp522
Rp523
sS'Italian Christmas pudding cake'
p524
g2
(g3
g4
(S'http://www.bbc.co.uk/food/recipes/italian_christmas_20000'
p525
S'Nigella Lawson'
p526
(lp527
S'panettone (or pandoro)'
p528
aS'Tuaca liqueur (or rum'
p529
aS'free-range eggs'
p530
aS'caster sugar'
p531
aS'mascarpone'
p532
aS'double cream'
p533
aS'Marsala'
p534
aS'marrons glaces'
p535
aS'mini chocolate chips or finely chopped chocolate'
p536
aS'pistachios'
p537
aS'pomegranate seeds'
p538
atp539
tp540
Rp541
sS'One pot partridge with bacon and chestnuts'
p542
g2
(g3
g4
(S'http://www.bbc.co.uk/food/recipes/one_pot_partridge_with_69897'
p543
S'The Hairy Bikers'
p544
(lp545
S'juniper berries'
p546
aS'oven-ready partridges'
p547
aS'salt and freshly ground black pepper'
p548
aS'butter'
p549
aS'sunflower oil'
p550
aS'medium onion'
p551
aS'rashers rindless streaky bacon'
p552
aS'bushy sprigs fresh thyme'
p553
aS'plain flour'
p554
aS'dry gin'
p555
aS'orange juice (about large orange)'
p556
aS'red wine'
p557
aS'chicken stock'
p558
aS'cranberry sauce or redcurrant jelly'
p559
aS'finely grated orange zest'
p560
aS'cooked and peeled chestnuts'
p561
aS'medium Savoy cabbage'
p562
atp563
tp564
Rp565
sS'Gazpacho'
p566
g2
(g3
g4
(S'http://www.bbc.co.uk/food/recipes/gazpacho_92065'
p567
S'Gordon Jones'
p568
(lp569
S'ripe tomatoes'
p570
aS'green pepper, seeds removed'
p571
aS'small red onion or spring onions'
p572
aS'cucumber'
p573
aS'large cloves garlic'
p574
aS'small fresh basil leaves'
p575
aS'extra virgin olive oil'
p576
aS'sherry vinegar'
p577
aS'salt and freshly ground black pepper'
p578
aS'day-old baguette'
p579
aS'olive oil'
p580
aS'paprika'
p581
aS'ice cubes'
p582
aS'salt and freshly ground black pepper'
p583
aS'spring onions or red onion'
p584
aS'red pepper, seeds removed'
p585
aS'yellow pepper, seeds removed'
p586
aS'fresh basil leaves'
p587
atp588
tp589
Rp590
sS'Salt marsh lamb, samphire and broad beans, with balsamic meat juices'
p591
g2
(g3
g4
(S'http://www.bbc.co.uk/food/recipes/saltmarshlambsamphir_89242'
p592
S'Matt Tebbutt'
p593
(lp594
S'x salt marsh lamb rump steaks'
p595
aS'olive oil'
p596
aS'unsalted butter'
p597
aS'rock samphire'
p598
aS'young broad beans, removed from their pods'
p599
aS'salt and freshly ground black pepper'
p600
aS'banana shallot'
p601
aS'garlic clove'
p602
aS'flatleaf parsley'
p603
aS'balsamic vinegar'
p604
aS'strong lamb or veal stock'
p605
atp606
tp607
Rp608
sS'Roasted pumpkin soup'
p609
g2
(g3
g4
(S'http://www.bbc.co.uk/food/recipes/roasted_pumpkin_soup_59746'
p610
S'Tom Kitchin'
p611
(lp612
S'trimmings and skin from the pumpkin (see below)'
p613
aS'pints chicken stock or vegetable stock'
p614
aS'onion'
p615
aS'parsley stalks'
p616
aS'sprigs fresh thyme'
p617
aS'cinnamon stick'
p618
aS'head garlic'
p619
aS'celery sticks'
p620
aS'carrots'
p621
aS'acorn squash'
p622
aS'olive oil'
p623
aS'salt and freshly ground black pepper'
p624
aS'pumpkin, stalk and skin removed and reserved, seeds removed and reserved'
p625
aS'vegetable oil'
p626
aS'onion'
p627
aS'ground cinnamon'
p628
aS'butter'
p629
aS'caraway seeds'
p630
aS'clear honey'
p631
aS'double cream'
p632
aS'olive oil'
p633
aS'seeds from the pumpkin (see above)'
p634
aS'ground cinnamon'
p635
aS'rashers pancetta'
p636
aS'creme fraiche'
p637
aS'chopped fresh chives'
p638
atp639
tp640
Rp641
sS'One-step no-churn coffee ice cream'
p642
g2
(g3
g4
(S'http://www.bbc.co.uk/food/recipes/one-step_no-churn_coffee_88525'
p643
S'Nigella Lawson'
p644
(lp645
S'double cream'
p646
aS'condensed milk'
p647
aS'instant espresso powder'
p648
aS'espresso liqueur (or coffee liqueur)'
p649
atp650
tp651
Rp652
sS'Pauls kransekake'
p653
g2
(g3
g4
(S'http://www.bbc.co.uk/food/recipes/pauls_kransekake_83354'
p654
S'Paul Hollywood'
p655
(lp656
S'ground almonds'
p657
aS'icing sugar'
p658
aS'free-range egg whites'
p659
aS'almond extract'
p660
aS'vegetable oil'
p661
aS'semolina'
p662
aS'plain flour'
p663
aS'free-range egg whites'
p664
aS'icing sugar'
p665
aS'few drops red food colouring'
p666
aS'red'
p667
atp668
tp669
Rp670
sS'Sprouts with chestnuts and pancetta'
p671
g2
(g3
g4
(S'http://www.bbc.co.uk/food/recipes/sprouts_with_chestnuts_87565'
p672
S'Mary Berry'
p673
(lp674
S'small Brussels sprouts'
p675
aS'butter'
p676
aS'thinly sliced pancetta'
p677
aS'onion'
p678
aS'frozen chestnuts'
p679
aS'salt and freshly ground black pepper'
p680
atp681
tp682
Rp683
sS'Bubble and squeak patties'
p684
g2
(g3
g4
(S'http://www.bbc.co.uk/food/recipes/bubble_and_squeak_05843'
p685
S'Nigel Slater'
p686
(lp687
S'a of leftover roast parsnips or roast potatoes'
p688
aS'a of leftover Brussels sprouts'
p689
aS'salt and black pepper'
p690
aS'a of crumbled goats cheese'
p691
aS'plain flour'
p692
aS'a little vegetable oil'
p693
aS'tomato or onion chutney (preferably homemade)'
p694
atp695
tp696
Rp697
sS'Turkey salad with Chinese cabbage, beansprouts and Vietnamese mint'
p698
g2
(g3
g4
(S'http://www.bbc.co.uk/food/recipes/turkeysaladwithchine_92947'
p699
S'Rick Stein'
p700
(lp701
S'shallots, peeled'
p702
aS'salt'
p703
aS'cold, cooked leftover turkey meat'
p704
aS'Chinese cabbage, core removed'
p705
aS'beansprouts'
p706
aS'large carrot, peeled, cut in half'
p707
aS'Vietnamese mint leaves (available from some Asian grocers), or a mixture of coriander and mint or Thai sweet basil leaves'
p708
aS'roasted peanuts, coarsely chopped'
p709
aS'freshly ground black pepper'
p710
aS'fish sauce (nam pla)'
p711
aS'freshly squeezed lime juice'
p712
aS'rice vinegar'
p713
aS'caster sugar'
p714
aS'very finely chopped garlic'
p715
aS"red bird's-eye chillies"
p716
atp717
tp718
Rp719
sS'French apple tart with calvados and Chantilly cream'
p720
g2
(g3
g4
(S'http://www.bbc.co.uk/food/recipes/french_apple_tart_with_70368'
p721
S'Michel Roux Jr.'
p722
(lp723
S'ready-made puff pastry'
p724
aS'stewed apple'
p725
aS'apples (Cox or Granny Smith), peeled'
p726
aS'caster sugar'
p727
aS'butter'
p728
aS'free-range egg yolk'
p729
aS'double cream'
p730
aS'icing sugar'
p731
aS'vanilla pod'
p732
aS'splash calvados'
p733
atp734
tp735
Rp736
sS'Pappardelle with Italian sausages and kale'
p737
g2
(g3
g4
(S'http://www.bbc.co.uk/food/recipes/pappardelle_with_italian_76302'
p738
S'The Hairy Bikers'
p739
(lp740
S'olive oil'
p741
aS'garlic clove'
p742
aS'Italian-style sausages'
p743
aS'chilli flakes'
p744
aS'white wine'
p745
aS'kale or other greens, tough stalks removed'
p746
aS'double cream'
p747
aS'sea salt and freshly ground black pepper'
p748
aS'fresh pappardelle pasta'
p749
aS'olive oil'
p750
aS'chopped fresh parsley'
p751
aS'parmesan'
p752
atp753
tp754
Rp755
sS'Buckwheat and butternut cupcakes with tahini maple icing'
p756
g2
(g3
g4
(S'http://www.bbc.co.uk/food/recipes/buckwheat_and_butternut_60078'
p757
S'Hemsley + Hemsley'
p758
(lp759
S'cooked butternut squash'
p760
aS'buckwheat flour'
p761
aS'ground cinnamon'
p762
aS'coconut oil'
p763
aS'maple syrup'
p764
aS'vanilla extract'
p765
aS'baking powder'
p766
aS'apple cider vinegar'
p767
aS'maple syrup'
p768
aS'coconut oil'
p769
aS'tahini'
p770
aS'vanilla extract'
p771
aS'dried edible rose petals or grated vegan chocolate'
p772
atp773
tp774
Rp775
sS'Roasted duck with quick gooseberry jam'
p776
g2
(g3
g4
(S'http://www.bbc.co.uk/food/recipes/roasted_duck_with_quick_75506'
p777
S'Jason Atherton'
p778
(lp779
S'fresh gooseberries, washed'
p780
aS'sugar'
p781
aS'elderflower buds (optional)'
p782
aS'star anise'
p783
aS'cinnamon stick'
p784
aS'white wine'
p785
aS'duck breasts'
p786
aS'broccoli'
p787
atp788
tp789
Rp790
sS'Redcurrant and mint jelly'
p791
g2
(g3
g4
(S'http://www.bbc.co.uk/food/recipes/redcurrant_and_mint_64246'
p792
S'Jo Wesley and Avril Rogers'
p793
(lp794
S'redcurrants'
p795
aS'mint'
p796
aS'sugar'
p797
aS'lemon'
p798
aS'mint leaves'
p799
atp800
tp801
Rp802
sS"Mincemeat and marzipan couronne ('crown')"
p803
g2
(g3
g4
(S'http://www.bbc.co.uk/food/recipes/pauls_mincemeat_and_33176'
p804
S'Paul Hollywood'
p805
(lp806
S'strong white bread flour'
p807
aS'salt'
p808
aS'instant yeast'
p809
aS'unsalted butter, softened'
p810
aS'whole milk'
p811
aS'free-range egg'
p812
aS'caster sugar'
p813
aS'icing sugar'
p814
aS'ground almonds'
p815
aS'orange'
p816
aS'free-range egg'
p817
aS'ready-made mincemeat'
p818
aS'apricot jam'
p819
aS'icing sugar'
p820
aS'pistachios'
p821
aS'glace cherries'
p822
atp823
tp824
Rp825
sS'Walnut Bakewell tart with roasted medlars'
p826
g2
(g3
g4
(S'http://www.bbc.co.uk/food/recipes/walnutbakewelltartwi_87482'
p827
S'James Martin'
p828
(lp829
S'packet ready-made sweet shortcrust pastry'
p830
aS'butter'
p831
aS'caster sugar'
p832
aS'free-range eggs'
p833
aS'ground walnuts'
p834
aS'breadcrumbs'
p835
aS'damson jam'
p836
aS'walnut halves'
p837
aS'double cream'
p838
aS'butter'
p839
aS'medlars'
p840
aS'caster sugar'
p841
aS'cinnamon stick'
p842
atp843
tp844
Rp845
sS'Creamed Brussels sprouts'
p846
g2
(g3
g4
(S'http://www.bbc.co.uk/food/recipes/creamedbrusselssprou_84835'
p847
S'Richard Corrigan'
p848
(lp849
S'Brussels sprouts'
p850
aS'rashers cured bacon'
p851
aS'double cream'
p852
aS'garlic cloves'
p853
aS'salt and freshly ground black pepper'
p854
atp855
tp856
Rp857
sS'Salmon and watercress tart'
p858
g2
(g3
g4
(S'http://www.bbc.co.uk/food/recipes/salmon_and_watercress_05414'
p859
S'Nigel Slater'
p860
(lp861
S'plain flour'
p862
aS'butter, cut into small pieces'
p863
aS'free-range egg yolk'
p864
aS'a little water'
p865
aS'salmon fillet'
p866
aS'a little butter or groundnut oil'
p867
aS'salt and black pepper'
p868
aS'large handfuls watercress'
p869
aS'free-range eggs'
p870
aS'double cream'
p871
atp872
tp873
Rp874
sS'Strawberry jam millefeuille'
p875
g2
(g3
g4
(S'http://www.bbc.co.uk/food/recipes/strawberry_jam_18761'
p876
S'The Hairy Bikers'
p877
(lp878
S'fresh strawberries'
p879
aS'fresh lemon juice'
p880
aS'jam sugar (with added pectin)'
p881
aS'large free-range egg yolks'
p882
aS'caster sugar'
p883
aS'plain flour'
p884
aS'cornflour'
p885
aS'semi-skimmed milk'
p886
aS'vanilla pod'
p887
aS'double cream'
p888
aS'block puff pastry'
p889
aS'icing sugar for dusting'
p890
aS'icing sugar'
p891
aS'fresh lemon juice'
p892
aS'cocoa powder'
p893
atp894
tp895
Rp896
sS'Arancini with deep-fried courgette flowers'
p897
g2
(g3
g4
(S'http://www.bbc.co.uk/food/recipes/arancini_with_deep-fried_05270'
p898
S'James Martin'
p899
(lp900
S'vegetable oil'
p901
aS'serrano or Parma ham'
p902
aS'grated parmesan'
p903
aS'approximately leftover chilled cooked risotto'
p904
aS'plain flour'
p905
aS'free-range eggs'
p906
aS'fresh breadcrumbs'
p907
aS'cornflour'
p908
aS'sparkling water'
p909
aS'courgette flowers'
p910
aS'lemon'
p911
atp912
tp913
Rp914
sS'Fettuccine with purple sprouting broccoli'
p915
g2
(g3
g4
(S'http://www.bbc.co.uk/food/recipes/fettuccinewithpurple_67561'
p916
S'James Martin'
p917
(lp918
S'onion'
p919
aS'organic garlic clove'
p920
aS'anchovy fillets'
p921
aS'capers'
p922
aS'rosemary leaves'
p923
aS'chopped flat leaf parsley'
p924
aS'extra virgin olive oil'
p925
aS'purple sprouting broccoli'
p926
aS'fresh fettuccine'
p927
aS'lemon'
p928
aS'salt and freshly ground black pepper'
p929
aS'parmesan shavings'
p930
atp931
tp932
Rp933
sS'Strawberry and cream lollies'
p934
g2
(g3
g4
(S'http://www.bbc.co.uk/food/recipes/strawberry_and_cream_84929'
p935
S'Sandra'
p936
(lp937
S'single cream'
p938
aS'vanilla pod'
p939
aS'strawberries'
p940
aS'icing sugar'
p941
aS'full-fat Greek-style yoghurt'
p942
aS'lavender flowers'
p943
atp944
tp945
Rp946
sS'Trout with samphire and beurre blanc'
p947
g2
(g3
g4
(S'http://www.bbc.co.uk/food/recipes/troutwithsamphireand_91865'
p948
S'Valentine Warner'
p949
(lp950
S'chilled unsalted butter'
p951
aS'medium shallots, peeled'
p952
aS'garlic clove, peeled'
p953
aS'fresh thyme'
p954
aS'small bay leaf'
p955
aS'black peppercorns'
p956
aS'dry white wine'
p957
aS'white wine vinegar'
p958
aS'sea salt flakes'
p959
aS'freshly squeezed lemon juice'
p960
aS'plain flour'
p961
aS'salt and freshly ground black pepper'
p962
aS'sunflower oil'
p963
aS'x thick-cut brown or rainbow trout fillets'
p964
aS'handfuls marsh samphire, rinsed thoroughly, tough stems removed'
p965
aS'butter'
p966
aS'freshly squeezed lemon juice'
p967
aS'salt and freshly ground black pepper'
p968
atp969
tp970
Rp971
sS'Courgetti spaghetti with tomato and butter bean pesto'
p972
g2
(g3
g4
(S'http://www.bbc.co.uk/food/recipes/courgetti_spaghetti_with_07741'
p973
S'Hemsley + Hemsley'
p974
(lp975
S'tin butter beans'
p976
aS'fat garlic cloves'
p977
aS'sun-dried tomatoes'
p978
aS'fresh basil'
p979
aS'lemon juice'
p980
aS'chilli flakes'
p981
aS'salt and freshly ground black pepper'
p982
aS'courgettes'
p983
aS'large ripe avocados, skin and seeds removed'
p984
aS'red chilli, chopped'
p985
aS'extra virgin olive oil'
p986
atp987
tp988
Rp989
sS'Cardamom and beetroot smoothie sundae'
p990
g2
(g3
g4
(S'http://www.bbc.co.uk/food/recipes/cardamom_and_beetroot_04997'
p991
S'Hemsley + Hemsley'
p992
(lp993
S'young beetroot (approximately'
p994
aS'coconut milk'
p995
aS'ripe banana'
p996
aS'cardamom seeds (see tips)'
p997
aS'ice cubes'
p998
aS'vanilla extract'
p999
aS'tiny sea salt'
p1000
aS'freshly squeezed lemon juice'
p1001
aS'cacao nibs or sesame seeds'
p1002
atp1003
tp1004
Rp1005
sS'Buttermilk pannacotta with lemon-roasted apricots'
p1006
g2
(g3
g4
(S'http://www.bbc.co.uk/food/recipes/buttermilkpancottawi_83904'
p1007
S'Paul Rankin'
p1008
(lp1009
S'double cream'
p1010
aS'split vanilla pod'
p1011
aS'condensed milk'
p1012
aS'gelatine leaves'
p1013
aS'buttermilk'
p1014
aS'ripe apricots'
p1015
aS'lemon'
p1016
aS'orange'
p1017
aS'pieces of lemon peel'
p1018
aS'sugar'
p1019
aS'biscotti'
p1020
atp1021
tp1022
Rp1023
sS'Slow-braised breast of lamb with artichoke puree and purple sprouting broccoli'
p1024
g2
(g3
g4
(S'http://www.bbc.co.uk/food/recipes/skrecipe_90494'
p1025
S'Galton Blackiston'
p1026
(lp1027
S'olive oil'
p1028
aS'butter'
p1029
aS'breast of lamb, taken off the bone'
p1030
aS'salt and freshly ground black pepper'
p1031
aS'onion'
p1032
aS'carrots'
p1033
aS'leek'
p1034
aS'bulb garlic'
p1035
aS'fresh rosemary'
p1036
aS'pints chicken stock, or vegetable stock'
p1037
aS'capers'
p1038
aS'fresh parsley'
p1039
aS'double cream'
p1040
aS'Jerusalem artichokes'
p1041
aS'lemon'
p1042
aS'butter'
p1043
aS'double cream'
p1044
aS'freshly ground nutmeg'
p1045
aS'purple sprouting broccoli'
p1046
atp1047
tp1048
Rp1049
sS'Rhubarb, redcurrant and vanilla jam'
p1050
g2
(g3
g4
(S'http://www.bbc.co.uk/food/recipes/rhubarb_redcurrant_and_87772'
p1051
S'Alan'
p1052
(lp1053
S'redcurrants'
p1054
aS'rhubarb, trimmed'
p1055
aS'vanilla pod'
p1056
aS'granulated sugar'
p1057
aS'small lemon'
p1058
atp1059
tp1060
Rp1061
sS'Grilled rack of lamb with mango salad and mint chutney'
p1062
g2
(g3
g4
(S'http://www.bbc.co.uk/food/recipes/grilledrackoflambwit_86209'
p1063
S'Atul Kochhar'
p1064
(lp1065
S'finely chopped raw papaya'
p1066
aS'finely chopped garlic'
p1067
aS'finely chopped green chilli'
p1068
aS'ground fennel seeds'
p1069
aS'freshly ground black pepper'
p1070
aS'sweet paprika'
p1071
aS'mustard oil (available from some supermarkets and Asian grocers)'
p1072
aS'single cream'
p1073
aS'double cream'
p1074
aS'gram flour (also called chickpea flour'
p1075
aS'pastis'
p1076
aS'nutmeg'
p1077
aS'salt'
p1078
aS'x racks of lamb'
p1079
aS'butter'
p1080
aS'fresh mint leaves'
p1081
aS'finely chopped red onion'
p1082
aS'lemon juice'
p1083
aS'green chilli, seeds removed'
p1084
aS'salt'
p1085
aS'vegetable oil'
p1086
aS'Greek-style yoghurt'
p1087
aS'green mangoes'
p1088
aS'small fresh coriander'
p1089
aS'watercress'
p1090
aS'piece root ginger'
p1091
aS'toasted cumin seeds'
p1092
aS'lime juice'
p1093
aS'olive oil'
p1094
aS'sugar'
p1095
atp1096
tp1097
Rp1098
sS'Pigeons baked in a salt pastry crust with cabbage and mushroom fricassee'
p1099
g2
(g3
g4
(S'http://www.bbc.co.uk/food/recipes/pigeonsbakedinasaltp_93491'
p1100
S'Raymond Blanc'
p1101
(lp1102
S'squab pigeons, cleaned'
p1103
aS'clarified butter'
p1104
aS'strong white flour'
p1105
aS'fine table salt'
p1106
aS'free-range egg whites'
p1107
aS'water'
p1108
aS'cloves'
p1109
aS'free-range egg yolks'
p1110
aS'milk'
p1111
aS'caster sugar'
p1112
aS'rock salt'
p1113
aS'unsalted butter'
p1114
aS'shallots'
p1115
aS'button mushrooms'
p1116
aS'olive oil'
p1117
aS'reserved pigeon squab necks and wings (see above)'
p1118
aS'dry Madeira wine'
p1119
aS'brown chicken stock'
p1120
aS'salt and freshly ground black pepper'
p1121
aS'pointed cabbages'
p1122
aS'unsalted butter'
p1123
aS'banana shallot or onion, peeled'
p1124
aS'garlic clove, peeled'
p1125
aS'mixed wild mushrooms (pied de mouton, girolle'
p1126
aS'dry white wine'
p1127
aS'fresh flat-leaf parsley leaves'
p1128
aS'lemon juice'
p1129
aS'pinches sea salt'
p1130
aS'pinches freshly ground black pepper'
p1131
aS'Special equipment: kitchen string'
p1132
atp1133
tp1134
Rp1135
sS'Wild mushroom soup'
p1136
g2
(g3
g4
(S'http://www.bbc.co.uk/food/recipes/wildmushroomsoup_11367'
p1137
S'Michael Caines'
p1138
(lp1139
S'shallots'
p1140
aS'butter'
p1141
aS'of salt'
p1142
aS'wild mushrooms'
p1143
aS'pint water'
p1144
aS'pint chicken stock'
p1145
aS'salt and freshly ground black pepper'
p1146
aS'butter'
p1147
aS'wild mushrooms'
p1148
aS'of hazelnuts'
p1149
atp1150
tp1151
Rp1152
sS'Spiced potted shrimp with cucumber salad'
p1153
g2
(g3
g4
(S'http://www.bbc.co.uk/food/recipes/spiced_potted_shrimp_77214'
p1154
S'Glynn Purnell'
p1155
(lp1156
S'clarified butter'
p1157
aS'ground ginger'
p1158
aS'hot chilli powder'
p1159
aS'smoked paprika'
p1160
aS'mild curry powder'
p1161
aS'garam masala'
p1162
aS'fresh boiled shrimps'
p1163
aS'light olive oil'
p1164
aS'splash white wine vinegar'
p1165
aS'cucumber, peeled, cut in half lengthways, seeds scooped out using a spoon'
p1166
aS'salt and white pepper'
p1167
aS'medium slices white bread'
p1168
aS'small fresh coriander shoots'
p1169
atp1170
tp1171
Rp1172
sS'Smothered leeks and kohlrabi'
p1173
g2
(g3
g4
(S'http://www.bbc.co.uk/food/recipes/smotheredleeksandkoh_85612'
p1174
S'Sophie Grigson'
p1175
(lp1176
S'leeks'
p1177
aS'kohlrabi (around trimmed'
p1178
aS'large carrots (around'
p1179
aS'garlic cloves'
p1180
aS'bay leaf'
p1181
aS'sprigs fresh thyme'
p1182
aS'water'
p1183
aS'salt and freshly ground black pepper'
p1184
aS'butter'
p1185
atp1186
tp1187
Rp1188
sS'Pears poached in cardamom, cinnamon and chilli syrup with salted caramel sauce'
p1189
g2
(g3
g4
(S'http://www.bbc.co.uk/food/recipes/pears_poached_in_75989'
p1190
S'The Hairy Bikers'
p1191
(lp1192
S'pints pear cider'
p1193
aS'golden caster sugar'
p1194
aS'piece fresh root ginger'
p1195
aS'cloves'
p1196
aS'large cinnamon stick'
p1197
aS"small red birds'-eye chilli"
p1198
aS'cardamom pods'
p1199
aS'vanilla pod, split in half'
p1200
aS'firm Williams or Comice pears, peeled'
p1201
aS'whipping cream'
p1202
aS'sea salt crystals'
p1203
atp1204
tp1205
Rp1206
sS'Watermelon cooler'
p1207
g2
(g3
g4
(S'http://www.bbc.co.uk/food/recipes/watermelon_cooler_57906'
p1208
S'Neil Strawson and Richard Hunt'
p1209
(lp1210
S'watermelon, peeled'
p1211
aS'lemon'
p1212
aS'fresh mint leaves'
p1213
atp1214
tp1215
Rp1216
sS'Eggnog'
p1217
g2
(g3
g4
(S'http://www.bbc.co.uk/food/recipes/eggnog_51305'
p1218
S'Wayne Collins'
p1219
(lp1220
S'free-range eggs'
p1221
aS'caster sugar'
p1222
aS'bruised bay leaves'
p1223
aS'ground allspice'
p1224
aS'vanilla syrup'
p1225
aS'golden rum'
p1226
aS'cognac'
p1227
aS'full-fat milk'
p1228
aS'freshly grated nutmeg'
p1229
atp1230
tp1231
Rp1232
sS'Watercress and pea soup'
p1233
g2
(g3
g4
(S'http://www.bbc.co.uk/food/recipes/watercress_and_pea_soup_72980'
p1234
S'James Martin'
p1235
(lp1236
S'flatleaf parsley'
p1237
aS'fresh watercress'
p1238
aS'butter'
p1239
aS'shallot, peeled'
p1240
aS'garlic cloves, peeled'
p1241
aS'frozen peas (shelled weight)'
p1242
aS'pints hot vegetable stock'
p1243
aS'double cream'
p1244
aS'salt and freshly ground black pepper'
p1245
aS'fresh pea shoots'
p1246
aS'baby watercress'
p1247
aS'handfuls croutons (optional)'
p1248
aS'rashers cooked streaky bacon'
p1249
aS'drizzle olive oil'
p1250
atp1251
tp1252
Rp1253
sS'Mussels and cider'
p1254
g2
(g3
g4
(S'http://www.bbc.co.uk/food/recipes/mussels_and_cider_34415'
p1255
S'Nigel Slater'
p1256
(lp1257
S'glug of olive oil'
p1258
aS'a medium-sized onion'
p1259
aS'a fresh bay leaf'
p1260
aS'whole black peppercorns'
p1261
aS'cloves of garlic, whole'
p1262
aS'x bag of mussels'
p1263
aS'medium or dry cider'
p1264
aS'crusty bread'
p1265
atp1266
tp1267
Rp1268
sS'Roast loin of lamb, peas, lettuce and bacon'
p1269
g2
(g3
g4
(S'http://www.bbc.co.uk/food/recipes/roast_loin_of_lamb_peas_19776'
p1270
S'Bryn Williams'
p1271
(lp1272
S'loins of lamb, boned'
p1273
aS'salt and freshly ground black pepper'
p1274
aS'vegetable oil'
p1275
aS'rashers smoked streaky bacon'
p1276
aS'onion'
p1277
aS'lamb stock'
p1278
aS'peas'
p1279
aS'butter'
p1280
aS'Little Gem lettuce'
p1281
aS'mint'
p1282
atp1283
tp1284
Rp1285
sS'Rooibos sponge cake with quince jam and vanilla saffron icing'
p1286
g2
(g3
g4
(S'http://www.bbc.co.uk/food/recipes/rooibos_sponge_cake_with_62311'
p1287
S'Tim Anderson'
p1288
(lp1289
S'butter, at room temperature, cut into cubes'
p1290
aS'caster sugar'
p1291
aS'free-range eggs'
p1292
aS'self-raising flour'
p1293
aS'rooibos tea leaves'
p1294
aS'quinces, peeled'
p1295
aS'water'
p1296
aS'lemon'
p1297
aS'caster sugar'
p1298
aS'pectin'
p1299
aS'vanilla beans'
p1300
aS'strands saffron'
p1301
aS'clotted cream'
p1302
aS'whipping cream'
p1303
aS'icing sugar'
p1304
atp1305
tp1306
Rp1307
sS'Twice-cooked braised horseradish rib-eye steaks with crispy onions'
p1308
g2
(g3
g4
(S'http://www.bbc.co.uk/food/recipes/twice-cooked_braised_66810'
p1309
S'Brian Turner'
p1310
(lp1311
S'x rib-eye steaks (ideally all cut from the same piece of rib-eye by your butcher)'
p1312
aS'x bottle red wine'
p1313
aS'fresh thyme'
p1314
aS'rapeseed oil'
p1315
aS'carrots'
p1316
aS'celery sticks'
p1317
aS'large onion'
p1318
aS'garlic cloves'
p1319
aS'ripe tomatoes'
p1320
aS'Worcestershire sauce'
p1321
aS'pints chicken stock'
p1322
aS'creamed horseradish'
p1323
aS'butter'
p1324
aS'chopped fresh parsley'
p1325
aS'vegetable oil'
p1326
aS'plain flour'
p1327
aS'smoked paprika'
p1328
aS'pint full-fat milk'
p1329
aS'onions'
p1330
aS'new potatoes'
p1331
aS'butter'
p1332
aS'salt and freshly ground black pepper'
p1333
atp1334
tp1335
Rp1336
sS'Blood orange tart'
p1337
g2
(g3
g4
(S'http://www.bbc.co.uk/food/recipes/bloodorangetart_93766'
p1338
S'Simon Rimmer'
p1339
(lp1340
S'sugar'
p1341
aS'blood oranges'
p1342
aS'orange blossom water'
p1343
aS'free-range eggs'
p1344
aS'butter'
p1345
aS'sweetened shortcrust pastry tart shell'
p1346
aS'blood oranges, peeled'
p1347
aS'demerara sugar'
p1348
aS'double cream or custard'
p1349
atp1350
tp1351
Rp1352
sS'Greengage smash'
p1353
g2
(g3
g4
(S'http://www.bbc.co.uk/food/recipes/greengagesmash_92197'
p1354
S'Wayne Collins'
p1355
(lp1356
S'large greengages, cut into quarters'
p1357
aS'fresh mint leaves'
p1358
aS'freshly squeezed lime juice'
p1359
aS'plum jam'
p1360
aS'orange-flavoured vodka'
p1361
aS'Riesling wine'
p1362
aS'crushed ice'
p1363
atp1364
tp1365
Rp1366
sS'Crab rarebit with fries and a Little Gem salad'
p1367
g2
(g3
g4
(S'http://www.bbc.co.uk/food/recipes/cromercrabrarebitwit_87267'
p1368
S'James Martin'
p1369
(lp1370
S'small whole crabs'
p1371
aS'Montgomery cheddar cheese'
p1372
aS'milk'
p1373
aS'breadcrumbs'
p1374
aS'flour'
p1375
aS'of Worcestershire sauce'
p1376
aS'free-range egg'
p1377
aS'free-range egg yolk'
p1378
aS'English mustard powder'
p1379
aS'butter'
p1380
aS'salt and freshly ground black pepper'
p1381
aS'vegetable oil'
p1382
aS'large chipping potatoes'
p1383
aS'Little Gem lettuces'
p1384
aS'extra virgin olive oil'
p1385
aS'lemon'
p1386
atp1387
tp1388
Rp1389
sS'Chestnut, leek and mushroom tartlets'
p1390
g2
(g3
g4
(S'http://www.bbc.co.uk/food/recipes/chestnutleekandmushr_66048'
p1391
S'The Vegetarian Society'
p1392
(lp1393
S'ready-made puff pastry (thawed if frozen)'
p1394
aS'wild rice'
p1395
aS'olive oil'
p1396
aS'vegan margarine'
p1397
aS'leeks'
p1398
aS'oyster mushrooms'
p1399
aS'packed cooked and peeled chestnuts'
p1400
aS'sprigs fresh rosemary, leaves only'
p1401
aS'fresh sage'
p1402
aS'salt and freshly ground black pepper'
p1403
aS'soy sauce'
p1404
atp1405
tp1406
Rp1407
sS'Pan-fried Jersey sea bass and grilled oysters with seasonal vegetables'
p1408
g2
(g3
g4
(S'http://www.bbc.co.uk/food/recipes/pan-fried_jersey_sea_54788'
p1409
S'The Cotton and Garland family'
p1410
(lp1411
S'Jersey Royal potatoes'
p1412
aS'sprigs fresh mint leaves'
p1413
aS'butter'
p1414
aS''
p1415
aS'sea bass fillets'
p1416
aS'sea salt and freshly ground black pepper'
p1417
aS'olive oil'
p1418
aS'lemon'
p1419
ag1415
aS'thick slice pancetta or thick-cut smoky bacon'
p1420
aS'fresh oysters, shells scrubbed clean'
p1421
aS'good-quality chicken stock'
p1422
aS'dry white wine.'
p1423
aS'lemon'
p1424
aS'olive oil'
p1425
aS'chopped fresh tarragon leaves'
p1426
aS'fresh dill'
p1427
aS'mangetout'
p1428
aS'sugar'
p1429
aS'sea salt'
p1430
atp1431
tp1432
Rp1433
sS'Christmas Genoa cake'
p1434
g2
(g3
g4
(S'http://www.bbc.co.uk/food/recipes/marys_christmas_genoa_32386'
p1435
S'Mary Berry'
p1436
(lp1437
S'red or natural (uncoloured) glace cherries, rinsed'
p1438
aS'tinned pineapple in pineapple juice, drained'
p1439
aS'ready-to-eat dried apricots'
p1440
aS'blanched almonds'
p1441
aS'lemons'
p1442
aS'sultanas'
p1443
aS'unsalted butter, softened'
p1444
aS'caster sugar'
p1445
aS'large free-range eggs'
p1446
aS'self-raising flour'
p1447
aS'ground almonds'
p1448
aS'small blanched whole almonds'
p1449
aS'small walnut halves'
p1450
aS'small red or natural (uncoloured) glace cherries'
p1451
aS'whole orange peel (available from health-food shops)'
p1452
aS'apricot jam'
p1453
atp1454
tp1455
Rp1456
sS'Escalope of chicken with rocket, sage and lemon'
p1457
g2
(g3
g4
(S'http://www.bbc.co.uk/food/recipes/escalopeofchickenwit_92046'
p1458
S'Paul Merrett'
p1459
(lp1460
S'boneless chicken breasts'
p1461
aS'fresh sage leaves'
p1462
aS'black peppercorns'
p1463
aS'plain flour'
p1464
aS'free-range eggs'
p1465
aS'milk'
p1466
aS'fresh breadcrumbs'
p1467
aS'unsalted butter'
p1468
aS'lemon'
p1469
aS'olive oil'
p1470
aS'splash balsamic vinegar'
p1471
aS'wild rocket leaves'
p1472
aS'freshly grated parmesan'
p1473
atp1474
tp1475
Rp1476
sS'Roasted pork loin with chilli and watercress crust'
p1477
g2
(g3
g4
(S'http://www.bbc.co.uk/food/recipes/roasted_pork_loin_with_21119'
p1478
S'James Martin'
p1479
(lp1480
S'panko breadcrumbs (available from specialist Japanese delis and some supermarkets)'
p1481
aS'large fresh watercress'
p1482
aS'sprigs fresh flatleaf parsley'
p1483
aS'salt'
p1484
aS'cracked black pepper'
p1485
aS'x pork loins'
p1486
aS'salt and freshly ground black pepper'
p1487
aS'olive oil'
p1488
aS'sweet chilli dipping sauce'
p1489
aS'rice wine vinegar'
p1490
aS'sugar'
p1491
aS'salt'
p1492
aS'white turnip, peeled'
p1493
aS'cucumber, cut in half lengthways, seeds scooped out using a spoon'
p1494
aS'shallot, peeled'
p1495
aS'small radishes'
p1496
aS'baby watercress leaves'
p1497
aS'small punnet baby coriander cress'
p1498
aS'drizzle extra virgin olive oil'
p1499
atp1500
tp1501
Rp1502
sS'Borscht'
p1503
g2
(g3
g4
(S'http://www.bbc.co.uk/food/recipes/borscht_05905'
p1504
S'Kristina Rhianoff'
p1505
(lp1506
S'beef mince'
p1507
aS'potatoes'
p1508
aS'white cabbage'
p1509
aS'vegetable oil'
p1510
aS'carrots'
p1511
aS'medium raw beetroots'
p1512
aS'onions'
p1513
aS'red peppers, seeds removed'
p1514
aS'tomato puree'
p1515
aS'lemon'
p1516
aS'chopped dill'
p1517
aS'sea salt and freshly ground black pepper'
p1518
aS'creme fraiche'
p1519
ag1415
atp1520
tp1521
Rp1522
sS'Marinated prawns with roasted lemon mayonnaise and asparagus'
p1523
g2
(g3
g4
(S'http://www.bbc.co.uk/food/recipes/marinated_prawns_with_15688'
p1524
S'James Martin'
p1525
(lp1526
S'large raw king prawns'
p1527
aS'red chilli'
p1528
aS'lemon'
p1529
aS'garlic cloves'
p1530
aS'olive oil'
p1531
aS'chopped fresh coriander'
p1532
aS'asparagus spears'
p1533
aS'watercress'
p1534
aS'lemons'
p1535
aS'free-range egg yolks'
p1536
aS'white wine vinegar'
p1537
aS'dijon mustard'
p1538
aS'rapeseed oil or light olive oil'
p1539
atp1540
tp1541
Rp1542
sS"Shepherd's pie with spiced parsnip mash"
p1543
g2
(g3
g4
(S'http://www.bbc.co.uk/food/recipes/shepherdspiewithspic_83899'
p1544
S'Nigel Slater'
p1545
(lp1546
S'large parsnips'
p1547
aS'onions'
p1548
aS'butter'
p1549
aS'large ground cumin'
p1550
aS'freshly ground coriander seeds'
p1551
aS'garam masala'
p1552
aS'about butter'
p1553
aS'salt and freshly ground black pepper'
p1554
aS'leeks or onions'
p1555
aS'carrot'
p1556
aS'dripping or butter'
p1557
aS'Italian brown mushrooms'
p1558
aS'cooked roast lamb, minced'
p1559
aS'flour'
p1560
aS'tomato puree'
p1561
aS'hot lamb or chicken stock'
p1562
aS'bay leaf'
p1563
aS'thyme'
p1564
aS'Worcestershire sauce'
p1565
atp1566
tp1567
Rp1568
sS'Gluten-free Venetian carrot cake'
p1569
g2
(g3
g4
(S'http://www.bbc.co.uk/food/recipes/gluten-free_and_11807'
p1570
S'Nigella Lawson'
p1571
(lp1572
S'pine nuts'
p1573
aS'medium carrots (approx.'
p1574
aS'golden sultanas'
p1575
aS'rum'
p1576
aS'caster sugar'
p1577
aS'regular olive oil'
p1578
aS'vanilla extract'
p1579
aS'free-range eggs'
p1580
aS'ground almonds'
p1581
aS'ground nutmeg'
p1582
aS'lemon'
p1583
aS'mascarpone'
p1584
aS'icing sugar'
p1585
aS'rum'
p1586
atp1587
tp1588
Rp1589
sS'The Elizabeth'
p1590
g2
(g3
g4
(S'http://www.bbc.co.uk/food/recipes/theelizabeth_86502'
p1591
S'Andy Pearson'
p1592
(lp1593
S'gooseberries'
p1594
aS'white sugar'
p1595
aS'gin'
p1596
aS'elderflower cordial'
p1597
aS'lime juice'
p1598
aS'traditional cloudy lemonade'
p1599
aS'gooseberries and fresh elderflowers'
p1600
atp1601
tp1602
Rp1603
sS'Cinnamon plums with French toast'
p1604
g2
(g3
g4
(S'http://www.bbc.co.uk/food/recipes/cinnamon_plums_with_05809'
p1605
S'Nigella Lawson'
p1606
(lp1607
S'cranberry juice'
p1608
aS'caster sugar'
p1609
aS'plums'
p1610
aS'cinnamon stick'
p1611
aS'free-range eggs'
p1612
aS'full-fat milk'
p1613
aS'ground cinnamon'
p1614
aS'sugar'
p1615
aS'large slices stale white bread'
p1616
aS'soft'
p1617
atp1618
tp1619
Rp1620
sS'Prawns al cremat with a Little Gem, dandelion and watercress salad served with aioli'
p1621
g2
(g3
g4
(S'http://www.bbc.co.uk/food/recipes/alcrematwithalittleg_94027'
p1622
S'Bjorn van der Horst'
p1623
(lp1624
S'olive oil'
p1625
aS'shallot, peeled'
p1626
aS'anchovy fillet'
p1627
aS'finely chopped red chilli'
p1628
aS'garlic, peeled'
p1629
aS'king prawns, peeled'
p1630
aS'dry white wine'
p1631
aS'fish soup'
p1632
aS'chopped fresh flatleaf parsley'
p1633
aS'persillade (equal quantities of finely chopped garlic and parsley)'
p1634
aS'breadcrumbs'
p1635
aS'garlic cloves'
p1636
aS'Dijon mustard'
p1637
aS'extra virgin olive oil'
p1638
aS'ground espelette pepper (or pinch paprika and cayenne pepper)'
p1639
aS'lemon'
p1640
aS'sherry vinegar'
p1641
aS'olive oil'
p1642
aS'Dijon mustard'
p1643
aS'shallot, peeled'
p1644
aS'Little Gem lettuces'
p1645
aS'dandelion leaves'
p1646
aS'watercress'
p1647
aS'chopped fresh tarragon'
p1648
aS'chopped fresh chervil'
p1649
aS'chopped fresh mint'
p1650
aS'slices toasted sourdough bread'
p1651
atp1652
tp1653
Rp1654
sS'Baked stuffed aubergine with walnut and Roquefort'
p1655
g2
(g3
g4
(S'http://www.bbc.co.uk/food/recipes/bakedstuffedaubergin_71986'
p1656
S'James Martin'
p1657
(lp1658
S'large aubergines'
p1659
aS'garlic cloves'
p1660
aS'small white onion'
p1661
aS'tomatoes'
p1662
aS'small of fresh rosemary'
p1663
aS'small of fresh thyme'
p1664
aS'virgin olive oil'
p1665
aS'salt and freshly ground black pepper'
p1666
aS'walnuts'
p1667
aS'toasted fresh breadcrumbs'
p1668
aS'vegetarian Roquefort cheese'
p1669
aS'olive oil'
p1670
aS'medium onion'
p1671
aS'garlic clove'
p1672
aS'x tin good-quality tomatoes'
p1673
aS'small fresh basil leaves'
p1674
aS'fresh chopped oregano'
p1675
atp1676
tp1677
Rp1678
sS'Cranberry-studded mincemeat'
p1679
g2
(g3
g4
(S'http://www.bbc.co.uk/food/recipes/cranberrystuddedminc_90619'
p1680
S'Nigella Lawson'
p1681
(lp1682
S'soft dark brown sugar'
p1683
aS'ruby port'
p1684
aS'cranberries'
p1685
aS'ground cinnamon'
p1686
aS'ground ginger'
p1687
aS'ground cloves'
p1688
aS'currants'
p1689
aS'raisins'
p1690
aS'dried cranberries'
p1691
aS'clementine'
p1692
aS'brandy'
p1693
aS'few drops almond extract'
p1694
aS'vanilla extract'
p1695
aS'honey'
p1696
atp1697
tp1698
Rp1699
sS'Carpaccio of cured venison with horseradish, chive and roasted walnut cream'
p1700
g2
(g3
g4
(S'http://www.bbc.co.uk/food/recipes/carpaccioofcuredveni_86279'
p1701
S'Noel McMeel'
p1702
(lp1703
S'boneless loin of venison'
p1704
aS'rapeseed oil'
p1705
aS'sea salt'
p1706
aS'juniper berries'
p1707
aS'star anise'
p1708
aS'cracked black pepper'
p1709
aS'rosemary, leaves only'
p1710
aS'sprigs thyme, leaves only'
p1711
aS'coriander seeds'
p1712
aS'grated orange zest'
p1713
aS'grated lemon zest'
p1714
aS'salt and freshly ground black pepper'
p1715
aS'walnuts'
p1716
aS'pint whipping cream'
p1717
aS'freshly grated horseradish'
p1718
aS'wholegrain mustard'
p1719
aS'chives'
p1720
aS'olive oil'
p1721
aS'a few chives'
p1722
atp1723
tp1724
Rp1725
sS'Venison with sweet and sour parsnips, pear and curly kale'
p1726
g2
(g3
g4
(S'http://www.bbc.co.uk/food/recipes/roastloinofvenisonwi_93125'
p1727
S'Glynn Purnell'
p1728
(lp1729
S'x venison loins'
p1730
aS'freshly ground black pepper'
p1731
aS'juniper berries'
p1732
aS'butter'
p1733
aS'caster sugar'
p1734
aS'malt vinegar'
p1735
aS'medium parsnip, peeled'
p1736
aS'chicken stock'
p1737
aS'kale, washed thoroughly'
p1738
aS'Conference pear, peeled, core removed'
p1739
aS'extra virgin olive oil'
p1740
aS'salt'
p1741
aS'red wine gravy'
p1742
atp1743
tp1744
Rp1745
sS'Sweetcorn fritters with homemade ketchup'
p1746
g2
(g3
g4
(S'http://www.bbc.co.uk/food/recipes/sweetcornfritterswit_87400'
p1747
S'Simon Rimmer'
p1748
(lp1749
S'plain flour'
p1750
aS'baking powder'
p1751
aS'salt and freshly ground black pepper'
p1752
aS'smoked paprika'
p1753
aS'caster sugar'
p1754
aS'free-range eggs'
p1755
aS'milk'
p1756
aS'sweetcorn kernels (if using tinned'
p1757
aS'finely chopped spring onions'
p1758
aS'vegetable oil'
p1759
aS'vegetable oil'
p1760
aS'onion'
p1761
aS'stick celery'
p1762
aS'bulb fennel'
p1763
aS'fresh ginger'
p1764
aS'garlic cloves'
p1765
aS'fresh red chilli'
p1766
aS'coriander seeds'
p1767
aS'cloves'
p1768
aS'plum tomatoes'
p1769
aS'water'
p1770
aS'salt and freshly ground black pepper'
p1771
aS'soft brown sugar'
p1772
aS'red wine vinegar'
p1773
atp1774
tp1775
Rp1776
sS'Wild Scottish venison with port, figs and potato wedges'
p1777
g2
(g3
g4
(S'http://www.bbc.co.uk/food/recipes/wild_scottish_venison_36281'
p1778
S'Rob Mackenzie and Andy Waugh'
p1779
(lp1780
S'cold-pressed rapeseed oil'
p1781
aS'large potatoes'
p1782
aS'smoked sea salt'
p1783
aS'cold-pressed rapeseed oil'
p1784
aS'small red chillies'
p1785
aS'small red onions'
p1786
aS'wild Scottish venison haunch steaks'
p1787
aS'soft dried figs'
p1788
aS'port'
p1789
aS'balsamic vinegar'
p1790
aS'watercress salad'
p1791
atp1792
tp1793
Rp1794
sS'Lavender creme caramel with lavender shortbread'
p1795
g2
(g3
g4
(S'http://www.bbc.co.uk/food/recipes/lavender_crme_caramel_96589'
p1796
S'James Martin'
p1797
(lp1798
S'caster sugar'
p1799
aS'full-fat milk'
p1800
aS'double cream'
p1801
aS'dried lavender tips (to taste)'
p1802
aS'free-range eggs'
p1803
aS'unsalted butter, softened'
p1804
aS'icing sugar'
p1805
aS'dried lavender tips (to taste)'
p1806
aS'cornflour'
p1807
aS'plain flour'
p1808
aS'caster sugar (optional)'
p1809
aS'caster sugar'
p1810
aS'full-fat milk'
p1811
aS'double cream'
p1812
aS'dried lavender tips (to taste)'
p1813
aS'free-range eggs'
p1814
aS'unsalted butter, softened'
p1815
aS'icing sugar'
p1816
aS'dried lavender tips (to taste)'
p1817
aS'cornflour'
p1818
aS'plain flour'
p1819
aS'caster sugar (optional)'
p1820
atp1821
tp1822
Rp1823
sS'Slow cooker chilli con carne'
p1824
g2
(g3
g4
(S'http://www.bbc.co.uk/food/recipes/slow_cooker_chilli_con_13029'
p1825
S'Jane Hornby'
p1826
(lp1827
S'onion'
p1828
aS'red pepper'
p1829
aS'small fresh coriander'
p1830
aS'sunflower oil'
p1831
aS'beef brisket'
p1832
aS'salt and freshly ground black pepper'
p1833
aS'fat garlic cloves'
p1834
aS'ground cumin'
p1835
aS'ground coriander'
p1836
aS'hot chilli powder'
p1837
aS'dried oregano'
p1838
aS'tomato puree'
p1839
aS'can chopped tomatoes'
p1840
aS'pint hot beef stock'
p1841
aS'can red kidney beans in water'
p1842
aS'cube good quality dark chocolate'
p1843
atp1844
tp1845
Rp1846
sS'Roasted cauliflower and lentil salad with red pepper sauce'
p1847
g2
(g3
g4
(S'http://www.bbc.co.uk/food/recipes/roasted_cauliflower_and_49517'
p1848
S'Hemsley + Hemsley'
p1849
(lp1850
S'large cauliflower (approximately outer leaves and stalk removed'
p1851
aS'coconut oil or ghee'
p1852
aS'ground cumin'
p1853
aS'sea salt flakes'
p1854
aS'Puy lentils'
p1855
aS'bay leaf'
p1856
aS'extra virgin olive oil'
p1857
aS'finely chopped fresh flatleaf parsley'
p1858
aS'large red pepper, preferably Romano, stalk and seeds removed'
p1859
aS'cashews'
p1860
aS'garlic clove'
p1861
aS'extra virgin olive oil'
p1862
aS'lemon juice'
p1863
aS'chilli flakes (optional)'
p1864
aS'sea salt and freshly ground black pepper'
p1865
atp1866
tp1867
Rp1868
sS'Champ'
p1869
g2
(g3
g4
(S'http://www.bbc.co.uk/food/recipes/champ_67444'
p1870
S'James Martin'
p1871
(lp1872
S'potatoes'
p1873
aS'pint milk'
p1874
aS'butter'
p1875
aS'salt and white pepper'
p1876
aS'large spring onions'
p1877
atp1878
tp1879
Rp1880
sS'Grey mullet, clams, tomatoes and vegetable hearts, orange and basil dressing'
p1881
g2
(g3
g4
(S'http://www.bbc.co.uk/food/recipes/grey_mullet_clams_92281'
p1882
S'Simon Hulstone'
p1883
(lp1884
S'x fillets grey mullet'
p1885
aS'salt and freshly ground black pepper'
p1886
aS'plum tomatoes'
p1887
aS'beef tomato'
p1888
aS'yellow or heritage variety tomatoes'
p1889
aS'cucumber'
p1890
aS'button onions, peeled, halved'
p1891
aS'spring onions, preferably red ones'
p1892
aS'clams'
p1893
aS'white wine'
p1894
aS'fresh orange juice'
p1895
aS'olive oil'
p1896
aS'caster sugar'
p1897
aS'salt'
p1898
aS'fresh basil leaves'
p1899
aS'oranges, peeled'
p1900
aS'small micro basil'
p1901
aS'small micro red wood sorrel'
p1902
aS'small green wood sorrel'
p1903
aS'borage flowers'
p1904
aS'rocket flowers'
p1905
atp1906
tp1907
Rp1908
sS'Barbecued sardines'
p1909
g2
(g3
g4
(S'http://www.bbc.co.uk/food/recipes/barbecued_sardines_27707'
p1910
S'James Martin'
p1911
(lp1912
S'cucumber, cut in half lengthways, seeds scraped out'
p1913
aS'banana shallot'
p1914
aS'garlic cloves'
p1915
aS'extra virgin olive oil'
p1916
aS'chopped fresh dill'
p1917
aS'chopped fresh mint leaves'
p1918
aS'chopped fresh coriander leaves'
p1919
aS'limes'
p1920
aS'sardines'
p1921
aS'sea salt and freshly ground black pepper'
p1922
atp1923
tp1924
Rp1925
sS'Raw cranberry sauce'
p1926
g2
(g3
g4
(S'http://www.bbc.co.uk/food/recipes/fresh_cranberry_sauce_88244'
p1927
S'Mary Berry'
p1928
(lp1929
S'fresh cranberries'
p1930
aS'caster sugar'
p1931
aS'small, thin-skinned orange, cut into quarters'
p1932
aS'mixed spice'
p1933
aS'freshly grated nutmeg'
p1934
atp1935
tp1936
Rp1937
sS'Slow cooker dal'
p1938
g2
(g3
g4
(S'http://www.bbc.co.uk/food/recipes/slow_cooker_split_pea_93320'
p1939
S'Jane Hornby'
p1940
(lp1941
S'yellow split peas'
p1942
aS'onion'
p1943
aS'chopped tomatoes (from a tin or fresh)'
p1944
aS'thumb of fresh root ginger'
p1945
aS'cumin seeds'
p1946
aS'ground turmeric'
p1947
aS'garlic cloves, one crushed'
p1948
aS'freeze-dried curry leaves'
p1949
aS'pts hot vegetable stock'
p1950
aS'hot green finger chilli'
p1951
aS'vegetable or sunflower oil'
p1952
aS'lemon wedges'
p1953
atp1954
tp1955
Rp1956
sS'Curranty cordial'
p1957
g2
(g3
g4
(S'http://www.bbc.co.uk/food/recipes/curranty_cordial_71718'
p1958
S'Jo Wesley and Avril Rogers'
p1959
(lp1960
S'redcurrants'
p1961
aS'blackcurrants'
p1962
aS'strawberries'
p1963
aS'granulated sugar'
p1964
aS'lemon'
p1965
atp1966
tp1967
Rp1968
sS'Mincemeat hot cakes with brandy butter'
p1969
g2
(g3
g4
(S'http://www.bbc.co.uk/food/recipes/mincemeat_hot_cakes_with_55190'
p1970
S'Nigel Slater'
p1971
(lp1972
S'free-range eggs'
p1973
aS'ready-made mincemeat'
p1974
aS'plain flour'
p1975
aS'a clementine'
p1976
aS'a little butter'
p1977
aS'brandy butter'
p1978
atp1979
tp1980
Rp1981
sS'Fragrant pork and aubergines'
p1982
g2
(g3
g4
(S'http://www.bbc.co.uk/food/recipes/fragrantpork_89290'
p1983
S'Ching-He Huang'
p1984
(lp1985
S'groundnut oil'
p1986
aS'aubergine'
p1987
aS'garlic cloves'
p1988
aS'grated fresh root ginger'
p1989
aS'red chilli'
p1990
aS'pork mince'
p1991
aS'Shaoxing rice wine or dry sherry'
p1992
aS'chilli bean sauce (available from Asian grocers)'
p1993
aS'hot chicken stock'
p1994
aS'pak choi or Chinese cabbage'
p1995
aS'clear rice vinegar or cider vinegar'
p1996
aS'toasted sesame oil'
p1997
aS'spring onions'
p1998
aS'cornflour'
p1999
aS'groundnut oil'
p2000
aS'aubergine'
p2001
aS'garlic cloves'
p2002
aS'grated fresh root ginger'
p2003
aS'red chilli'
p2004
aS'pork mince'
p2005
aS'Shaoxing rice wine or dry sherry'
p2006
aS'chilli bean sauce (available from Asian grocers)'
p2007
aS'hot chicken stock'
p2008
aS'pak choi or Chinese cabbage'
p2009
aS'clear rice vinegar or cider vinegar'
p2010
aS'toasted sesame oil'
p2011
aS'spring onions'
p2012
aS'cornflour'
p2013
atp2014
tp2015
Rp2016
sS'Toffee apple sponge pudding'
p2017
g2
(g3
g4
(S'http://www.bbc.co.uk/food/recipes/toffeeapplespongepud_92633'
p2018
S'Simon Rimmer'
p2019
(lp2020
S'unsalted butter'
p2021
aS'golden caster sugar'
p2022
aS'free-range eggs'
p2023
aS'self-raising flour'
p2024
aS'splash full-fat milk'
p2025
aS'stem ginger (from a jar)'
p2026
aS'cooking apples, peeled, cores removed'
p2027
aS'sugar'
p2028
aS'butter'
p2029
aS'soft dark brown sugar'
p2030
aS'double cream'
p2031
aS'condensed milk'
p2032
aS'calvados (optional)'
p2033
aS'ready-made custard'
p2034
atp2035
tp2036
Rp2037
sS'Asparagus risotto'
p2038
g2
(g3
g4
(S'http://www.bbc.co.uk/food/recipes/asparagusrisotto_85593'
p2039
S'Phil Vickery'
p2040
(lp2041
S'asparagus spears'
p2042
aS'olive oil'
p2043
aS'shallot'
p2044
aS'garlic clove'
p2045
aS'risotto rice (eg carnaroli or arborio)'
p2046
aS'white wine'
p2047
aS'hot vegetable stock'
p2048
aS'unsalted butter'
p2049
aS'Parmesan (or a similar vegetarian hard cheese)'
p2050
aS'salt and freshly ground black pepper'
p2051
aS'Parmesan (or a similar vegetarian hard cheese)'
p2052
atp2053
tp2054
Rp2055
sS'Black Forest cranachan'
p2056
g2
(g3
g4
(S'http://www.bbc.co.uk/food/recipes/black_forest_cranachan_06130'
p2057
S'Allegra McEvedy'
p2058
(lp2059
S'fresh cherries, stones removed'
p2060
aS'almond liqueur'
p2061
aS'rolled oats'
p2062
aS'flaked almonds'
p2063
aS'good-quality dark chocolate (minimum cocoa solids)'
p2064
aS'clear honey'
p2065
aS'double cream'
p2066
aS'icing sugar'
p2067
atp2068
tp2069
Rp2070
sS'Tomatoes stuffed with salmon'
p2071
g2
(g3
g4
(S'http://www.bbc.co.uk/food/recipes/tomatoes_stuffed_with_16590'
p2072
S'Brian Turner'
p2073
(lp2074
S'garlic cloves, peeled'
p2075
aS'small fresh parsley'
p2076
aS'chopped walnuts'
p2077
aS'rapeseed oil'
p2078
aS'salt'
p2079
aS'cooked leftover salmon fillet'
p2080
aS'shredded smoked salmon'
p2081
aS'ready-made mayonnaise'
p2082
aS'garlic clove'
p2083
aS'tomato ketchup'
p2084
aS'splash balsamic vinegar'
p2085
aS'large firm tomatoes, cut in half from top to bottom'
p2086
aS'salt and freshly ground black pepper'
p2087
aS'French beans'
p2088
aS'olive oil'
p2089
aS'white wine vinegar'
p2090
aS'Dijon mustard'
p2091
aS'small shallots'
p2092
atp2093
tp2094
Rp2095
sS'Smooth and creamy raspberry chia pudding'
p2096
g2
(g3
g4
(S'http://www.bbc.co.uk/food/recipes/smooth_and_creamy_58355'
p2097
S'Hemsley + Hemsley'
p2098
(lp2099
S'of full-fat creme fraiche (preferably organic)'
p2100
aS'chia seeds (available from health food stores)'
p2101
aS'vanilla extract'
p2102
aS'honey, preferably raw'
p2103
aS'raspberries'
p2104
aS'drops pure stevia extract (available from health food stores)'
p2105
aS'small toasted desiccated coconut or chopped almonds'
p2106
aS'unwaxed orange'
p2107
atp2108
tp2109
Rp2110
sS'Tagliarini with sea bass, squid, mussels, clams, brown shrimps, tomato and parsley'
p2111
g2
(g3
g4
(S'http://www.bbc.co.uk/food/recipes/taglieriniwithseabas_92548'
p2112
S'Theo Randall'
p2113
(lp2114
S'olive oil'
p2115
aS'garlic clove, peeled'
p2116
aS'x can chopped tomatoes'
p2117
aS'small clams'
p2118
aS'mussels'
p2119
aS'dry white wine'
p2120
aS'x sea bass fillets, skin removed'
p2121
aS'squid (tentacles included)'
p2122
aS'brown shrimps'
p2123
aS'chopped fresh flatleaf parsley'
p2124
aS'dried chilli flakes'
p2125
aS'salt and freshly ground black pepper'
p2126
aS'fresh tagliarini'
p2127
atp2128
tp2129
Rp2130
sS'English almond butter toffee'
p2131
g2
(g3
g4
(S'http://www.bbc.co.uk/food/recipes/english_almond_butter_49759'
p2132
S'Kitty Hope and Mark Greenwood'
p2133
(lp2134
S'groundnut oil'
p2135
aS'flaked almonds'
p2136
aS'unsalted butter'
p2137
aS'granulated sugar'
p2138
aS'vanilla extract'
p2139
aS'milk chocolate'
p2140
atp2141
tp2142
Rp2143
sS'Asparagus with cured ham, poached duck egg and hollandaise sauce'
p2144
g2
(g3
g4
(S'http://www.bbc.co.uk/food/recipes/asparagus_with_cured_ham_54730'
p2145
S'James Martin'
p2146
(lp2147
S'white wine vinegar'
p2148
aS'duck eggs'
p2149
aS'asparagus spears'
p2150
aS'slices air-cured ham, ideally British (alternatively'
p2151
aS'unsalted butter'
p2152
aS'white wine vinegar'
p2153
aS'shallot'
p2154
aS'whole black peppercorns'
p2155
aS'large egg yolks'
p2156
aS'salt and freshly ground black pepper'
p2157
atp2158
tp2159
Rp2160
sS'Tomato and basil savoury jam'
p2161
g2
(g3
g4
(S'http://www.bbc.co.uk/food/recipes/tomato_and_basil_savoury_46330'
p2162
S'Alan'
p2163
(lp2164
S'ripe tomatoes, skinned'
p2165
aS'shallots'
p2166
aS'garlic cloves'
p2167
aS'red chilli, deseeded'
p2168
aS'lemon'
p2169
aS'balsamic vinegar'
p2170
aS'pectin'
p2171
aS'caster sugar'
p2172
aS'finely chopped fresh basil leaves'
p2173
atp2174
tp2175
Rp2176
sS'Cauliflower cheese'
p2177
g2
(g3
g4
(S'http://www.bbc.co.uk/food/recipes/cauliflower_cheese_30249'
p2178
S'Sophie Wright'
p2179
(lp2180
S'large head cauliflower'
p2181
aS'sea salt and freshly ground black pepper'
p2182
aS'unsalted butter'
p2183
aS'plain flour'
p2184
aS'rasps nutmeg'
p2185
aS'skimmed milk'
p2186
aS'mature cheddar'
p2187
aS'Dijon mustard'
p2188
aS'parmesan, or similar vegetarian hard cheese'
p2189
atp2190
tp2191
Rp2192
sS'Roasted peach and raspberry pavlovas'
p2193
g2
(g3
g4
(S'http://www.bbc.co.uk/food/recipes/roastedpeachandraspb_92211'
p2194
S'James Martin'
p2195
(lp2196
S'free-range egg whites'
p2197
aS'caster sugar'
p2198
aS'cornflour'
p2199
aS'white wine vinegar'
p2200
aS'double cream'
p2201
aS'caster sugar'
p2202
aS'water'
p2203
aS'fresh orange and peach juice'
p2204
aS'ripe peaches'
p2205
aS'unsalted butter'
p2206
aS'raspberries'
p2207
aS'whole almonds'
p2208
atp2209
tp2210
Rp2211
sS'Grilled peach, burrata and basil salad with Dijon dressing'
p2212
g2
(g3
g4
(S'http://www.bbc.co.uk/food/recipes/grilled_peach_burrata_88873'
p2213
S'Lorraine Pascale'
p2214
(lp2215
S'extra virgin olive oil'
p2216
aS'balsamic vinegar (not a syrupy one)'
p2217
aS'Dijon mustard'
p2218
aS'flaked sea salt and freshly ground black pepper'
p2219
aS'olive oil'
p2220
aS'peaches, almost ripe but not too soft'
p2221
aS'ball buratta'
p2222
aS'bag rocket'
p2223
aS'of basil, leaves only'
p2224
atp2225
tp2226
Rp2227
sS'Caramelised apple floating islands'
p2228
g2
(g3
g4
(S'http://www.bbc.co.uk/food/recipes/caramelised_apple_91581'
p2229
S'Jo Wood'
p2230
(lp2231
S'butter'
p2232
aS'apples, peeled'
p2233
aS'dark brown sugar'
p2234
aS'free-range eggs'
p2235
aS'pints full-fat milk'
p2236
aS'caster sugar'
p2237
aS'vanilla extract'
p2238
atp2239
tp2240
Rp2241
sS'Sweet potato and chestnut hash'
p2242
g2
(g3
g4
(S'http://www.bbc.co.uk/food/recipes/sweet_potato_and_32889'
p2243
S'Simon Rimmer'
p2244
(lp2245
S'vegetable oil'
p2246
aS'onion'
p2247
aS'garlic clove'
p2248
aS'sweet potato'
p2249
aS'potato'
p2250
aS'red chilli'
p2251
aS'vacuum-packed chestnuts'
p2252
aS'unsalted butter'
p2253
aS'chopped fresh tarragon'
p2254
aS'poached eggs'
p2255
aS'creme fraiche'
p2256
aS'gherkins'
p2257
atp2258
tp2259
Rp2260
sS'Rosemary and garlic salt baked lamb shank'
p2261
g2
(g3
g4
(S'http://www.bbc.co.uk/food/recipes/rosemary_and_garlic_salt_80067'
p2262
S'Tom Kerridge'
p2263
(lp2264
S'salt'
p2265
aS'flour'
p2266
aS'free-range eggs'
p2267
aS'rosemary'
p2268
aS'lamb shanks'
p2269
aS'head garlic, separated into cloves'
p2270
aS'white wine vinegar'
p2271
aS'cinnamon stick'
p2272
aS'star anise'
p2273
aS'fennel seeds'
p2274
aS'coriander seeds'
p2275
aS'caster sugar'
p2276
aS'white peppercorns'
p2277
aS'Sichuan pepper'
p2278
aS'cabbage'
p2279
aS'onion'
p2280
aS'spring onions'
p2281
aS'red onion'
p2282
aS'green chilli'
p2283
aS'sea salt flakes'
p2284
aS'chives'
p2285
aS'rapeseed oil'
p2286
aS'nasturtium leaves'
p2287
aS'egg'
p2288
aS'English mustard'
p2289
aS'white wine vinegar'
p2290
aS'caster sugar'
p2291
aS'lemon juice'
p2292
aS'vegetable oil'
p2293
atp2294
tp2295
Rp2296
sS'Blueberry butter'
p2297
g2
(g3
g4
(S'http://www.bbc.co.uk/food/recipes/blueberry_butter_07052'
p2298
S'Jo Wesley and Avril Rogers'
p2299
(lp2300
S'cooking apples (about'
p2301
aS'blueberries'
p2302
aS'clear apple juice'
p2303
aS'medium orange'
p2304
aS'sugar'
p2305
atp2306
tp2307
Rp2308
sS'Colcannon'
p2309
g2
(g3
g4
(S'http://www.bbc.co.uk/food/recipes/colcannon_13802'
p2310
S'Hugh Fearnley-Whittingstall'
p2311
(lp2312
S'floury potatoes'
p2313
aS'cabbage'
p2314
aS'cream (optional)'
p2315
aS'salt and black pepper'
p2316
aS'large or small onions'
p2317
aS'a little bacon fat, beef dripping or other oil'
p2318
atp2319
tp2320
Rp2321
sS'Winter roots and lemon roast'
p2322
g2
(g3
g4
(S'http://www.bbc.co.uk/food/recipes/winter_roots_and_lemon_06059'
p2323
S'Nigel Slater'
p2324
(lp2325
S'Jerusalem artichokes'
p2326
aS'small potatoes'
p2327
aS'good glug of olive oil'
p2328
aS'lemons'
p2329
aS'salt and ground black pepper'
p2330
aS'large handfuls of fresh flatleaf parsley'
p2331
aS'small lump of parmesan'
p2332
atp2333
tp2334
Rp2335
sS'Flambeed clementines and satsumas'
p2336
g2
(g3
g4
(S'http://www.bbc.co.uk/food/recipes/flambeedclementinesa_86111'
p2337
S"Gino D'Acampo"
p2338
(lp2339
S'satsuma'
p2340
aS'clementine'
p2341
aS'satsuma'
p2342
aS'clementine'
p2343
aS'white wine'
p2344
aS'orange liqueur'
p2345
aS'fresh mint leaves'
p2346
atp2347
tp2348
Rp2349
sS'American-style pancakes with blueberries'
p2350
g2
(g3
g4
(S'http://www.bbc.co.uk/food/recipes/americanstylepancake_89165'
p2351
S'Denis Lawson'
p2352
(lp2353
S'self-raising flour'
p2354
aS'baking powder'
p2355
aS'large eggs'
p2356
aS'milk'
p2357
aS'salt'
p2358
aS'fresh blueberries'
p2359
aS'vegetable oil'
p2360
atp2361
tp2362
Rp2363
sS'Sea trout with carrots, asparagus and butter sauce'
p2364
g2
(g3
g4
(S'http://www.bbc.co.uk/food/recipes/seatroutwithcarrotsa_92386'
p2365
S'Galton Blackiston'
p2366
(lp2367
S'x wild sea trout, filleted'
p2368
aS'cockles, in their shells'
p2369
aS'water'
p2370
aS'baby carrots, scrubbed'
p2371
aS'asparagus spears, woody ends trimmed'
p2372
aS'butter'
p2373
aS'olive oil'
p2374
aS'cooked new potatoes'
p2375
aS'samphire'
p2376
aS'shallot'
p2377
aS'white wine vinegar'
p2378
aS'white wine'
p2379
aS'lemon juice'
p2380
aS'salted butter'
p2381
aS'chopped fresh chives'
p2382
atp2383
tp2384
Rp2385
sS'Rum punch roast pears, figs and peaches with toasted hazelnuts and vanilla creme fraiche'
p2386
g2
(g3
g4
(S'http://www.bbc.co.uk/food/recipes/rum_punch_roast_pears_27907'
p2387
S'Lorraine Pascale'
p2388
(lp2389
S'ripe peaches (or nectarines)'
p2390
aS'figs'
p2391
aS'ripe pears, quartered'
p2392
aS'dark rum (or apple juice)'
p2393
aS'soft light brown sugar'
p2394
aS'vanilla pod'
p2395
aS'cinnamon stick'
p2396
aS'sprigs of rosemary'
p2397
aS'orange'
p2398
aS'a of hazelnuts'
p2399
aS'creme fraiche'
p2400
aS'icing sugar'
p2401
aS'a grating of nutmeg'
p2402
atp2403
tp2404
Rp2405
sS'Welsh cakes with roasted apricots and Welsh cake ice cream'
p2406
g2
(g3
g4
(S'http://www.bbc.co.uk/food/recipes/welshcakeswithroaste_82041'
p2407
S'Angela Hartnett'
p2408
(lp2409
S'self-raising flour'
p2410
aS'mixed spice'
p2411
aS'of salt'
p2412
aS'caster sugar'
p2413
aS'lemon'
p2414
aS'butter'
p2415
aS'sultanas'
p2416
aS'large free-range egg'
p2417
aS'milk if needed'
p2418
aS'lard'
p2419
aS'free-range egg yolks'
p2420
aS'caster sugar'
p2421
aS'whipping cream'
p2422
aS'milk'
p2423
aS'vanilla pod'
p2424
aS'ground cinnamon'
p2425
aS'freshly grated nutmeg'
p2426
aS'apricots'
p2427
aS'caster sugar'
p2428
aS'knob of unsalted butter'
p2429
atp2430
tp2431
Rp2432
sS'Waffles with strawberry compote and ice cream'
p2433
g2
(g3
g4
(S'http://www.bbc.co.uk/food/recipes/waffles_with_strawberry_51757'
p2434
S'James Martin'
p2435
(lp2436
S'plain flour'
p2437
aS'baking powder'
p2438
aS'salt'
p2439
aS'caster sugar'
p2440
aS'free-range eggs'
p2441
aS'pint full-fat milk'
p2442
aS'melted butter'
p2443
aS'caster sugar'
p2444
aS'butter'
p2445
aS'strawberries'
p2446
aS'lemon'
p2447
aS'vanilla ice cream'
p2448
aS'maple syrup'
p2449
atp2450
tp2451
Rp2452
sS'Poached egg with toasted brioche and hazelnut-crumbed asparagus'
p2453
g2
(g3
g4
(S'http://www.bbc.co.uk/food/recipes/poached_egg_with_toasted_26578'
p2454
S'James Martin'
p2455
(lp2456
S'asparagus spears'
p2457
aS'loaf brioche'
p2458
aS'hazelnuts'
p2459
aS'butter'
p2460
aS'maple syrup'
p2461
aS'white wine vinegar'
p2462
aS'hen eggs'
p2463
atp2464
tp2465
Rp2466
sS'Caramelised chicory'
p2467
g2
(g3
g4
(S'http://www.bbc.co.uk/food/recipes/caramelisedchicory_85616'
p2468
S'Sophie Grigson'
p2469
(lp2470
S'butter'
p2471
aS'chicory'
p2472
aS'clear honey'
p2473
aS'large orange'
p2474
aS'salt and freshly ground black pepper'
p2475
atp2476
tp2477
Rp2478
sS'Italian roast chicken with peppers and olives'
p2479
g2
(g3
g4
(S'http://www.bbc.co.uk/food/recipes/italian_roast_chicken_88087'
p2480
S'Nigella Lawson'
p2481
(lp2482
S'x chicken (preferably organic)'
p2483
aS'unwaxed lemon'
p2484
aS'sprigs rosemary'
p2485
aS'leeks'
p2486
aS'red peppers'
p2487
aS'orange pepper'
p2488
aS'yellow pepper'
p2489
aS'pitted dry-packed black olives'
p2490
aS'olive oil'
p2491
aS'Sea salt flakes and freshly ground black pepper'
p2492
atp2493
tp2494
Rp2495
sS'Crab and salmon fishcakes with homemade tartare sauce'
p2496
g2
(g3
g4
(S'http://www.bbc.co.uk/food/recipes/crabsalmonanddillfis_93618'
p2497
S'Sophie Dahl'
p2498
(lp2499
S'small potatoes'
p2500
aS'sea salt and freshly ground black pepper'
p2501
aS'olive oil'
p2502
aS'salmon, poached, flaked'
p2503
aS'white crab meat'
p2504
aS'brown crab meat'
p2505
aS'good quality mayonnaise'
p2506
aS'fresh flatleaf parsley'
p2507
aS'fresh dill'
p2508
aS'red chilli'
p2509
aS'Dijon mustard'
p2510
aS'sea salt and freshly ground black pepper'
p2511
aS'olive oil'
p2512
aS'good quality mayonnaise'
p2513
aS'small cornichons or gherkins'
p2514
aS'capers'
p2515
aS'fresh flatleaf parsley'
p2516
aS'lemon'
p2517
aS'grated fresh horseradish'
p2518
aS'sea salt and freshly ground black pepper'
p2519
aS'large handfuls fresh baby spinach'
p2520
aS'olive oil'
p2521
aS'sea salt and freshly ground black pepper'
p2522
atp2523
tp2524
Rp2525
sS'Barbecued pork patties with noodles, chicken broth and salad greens (bun cha)'
p2526
g2
(g3
g4
(S'http://www.bbc.co.uk/food/recipes/barbecuedporkpatties_91776'
p2527
S'Rick Stein'
p2528
(lp2529
S'carrots, peeled'
p2530
aS'mooli (daikon), peeled'
p2531
aS'salt'
p2532
aS'rice vinegar'
p2533
aS'caster sugar'
p2534
aS'water'
p2535
aS'chicken carcasses or chicken drumsticks or wings'
p2536
aS'spring onions, or onion'
p2537
aS'garlic, peeled'
p2538
aS'fresh root ginger, peeled'
p2539
aS'star anise'
p2540
aS'black or white peppercorns'
p2541
aS'fish sauce'
p2542
aS'palm sugar (available at Asian grocers; substitute golden caster sugar if unavailable)'
p2543
aS'minced pork'
p2544
aS'fish sauce'
p2545
aS'palm sugar'
p2546
aS'finely chopped garlic'
p2547
aS'shallots, peeled'
p2548
aS'freshly ground black pepper'
p2549
aS'salt'
p2550
aS'fresh fine rice noodles or dried rice vermicelli'
p2551
aS'small head lettuce'
p2552
aS'large fresh coriander'
p2553
aS'bean sprouts'
p2554
aS'kohlrabi or green papaya, peeled'
p2555
aS'rice vinegar'
p2556
aS"birds'-eye chillies"
p2557
aS'finely chopped garlic'
p2558
aS'pickled carrot and mooli (see recipe above)'
p2559
atp2560
tp2561
Rp2562
sS'Rhubarb panna cotta with roasted rhubarb'
p2563
g2
(g3
g4
(S'http://www.bbc.co.uk/food/recipes/rhubarbpannacottawit_90890'
p2564
S'James Martin'
p2565
(lp2566
S'rhubarb'
p2567
aS'caster sugar'
p2568
aS'apple juice'
p2569
aS'caster sugar'
p2570
aS'double cream'
p2571
aS'leaves gelatine, soaked in a bowl of water until soft'
p2572
aS'buttermilk'
p2573
atp2574
tp2575
Rp2576
sS'Shoulder of mountain lamb with leek-wrapped loin and champ'
p2577
g2
(g3
g4
(S'http://www.bbc.co.uk/food/recipes/shoulderofmountainla_86185'
p2578
S'Richard Corrigan'
p2579
(lp2580
S'shoulder of lamb on the bone, about trimmed of excess fat and sinew'
p2581
aS'few sprigs each of rosemary and thyme'
p2582
aS'olive oil'
p2583
aS'selection of finely cubed vegetables carrots'
p2584
aS'x bottle dry white wine'
p2585
aS'white wine vinegar'
p2586
aS'best end (rack) of lamb'
p2587
aS'salt and freshly ground black pepper'
p2588
aS'onion'
p2589
aS'garlic cloves'
p2590
aS'button mushrooms'
p2591
aS'large leek'
p2592
aS'knob of unsalted butter'
p2593
aS'onions'
p2594
aS'shallots'
p2595
aS'garlic clove'
p2596
aS'thyme leaves'
p2597
aS'olive oil'
p2598
aS'knob of unsalted butter'
p2599
aS"floury potatoes, such as Kerr's Pink"
p2600
aS'pint whole milk'
p2601
aS'unsalted butter'
p2602
aS'spring onions'
p2603
aS'chopped chives'
p2604
aS'banana shallot'
p2605
aS'broad beans in their pods'
p2606
aS'peas in their pods'
p2607
aS'unsalted butter'
p2608
atp2609
tp2610
Rp2611
sS'Scallops with leek and chestnut'
p2612
g2
(g3
g4
(S'http://www.bbc.co.uk/food/recipes/scallops_with_leek_and_17532'
p2613
S'Stephane Reynaud'
p2614
(lp2615
S'olive oil'
p2616
aS'garlic cloves'
p2617
aS'leeks, white part only'
p2618
aS'spring onions'
p2619
aS'fresh ginger'
p2620
aS'white wine'
p2621
aS'pre-cooked and peeled chestnuts'
p2622
aS'whipping cream'
p2623
aS'scallops in the shell, cleaned'
p2624
aS'salt and freshly ground black pepper'
p2625
atp2626
tp2627
Rp2628
sS'Pea hummus'
p2629
g2
(g3
g4
(S'http://www.bbc.co.uk/food/recipes/pea_hummus_74694'
p2630
S'Rekha'
p2631
(lp2632
S'fresh peas'
p2633
aS'tahini'
p2634
aS'freshly squeezed lime juice'
p2635
aS'ground cumin'
p2636
aS'salt'
p2637
aS'chopped fresh coriander'
p2638
aS'spring onions, trimmed'
p2639
aS'vegetable crisps or tortilla chips'
p2640
atp2641
tp2642
Rp2643
sS'Sausage, pumpkin and sage casserole'
p2644
g2
(g3
g4
(S'http://www.bbc.co.uk/food/recipes/sausagepumpkinandsag_92737'
p2645
S'Matt Tebbutt'
p2646
(lp2647
S'butter'
p2648
aS'good-quality sausages'
p2649
aS'onion, peeled'
p2650
aS'banana shallots, peeled'
p2651
aS'garlic cloves, peeled'
p2652
aS'chopped fresh sage'
p2653
aS'small pumpkin, peeled, seeds removed'
p2654
aS'white wine vinegar'
p2655
aS'caster sugar'
p2656
aS'canned chopped tomatoes'
p2657
aS'canned cannellini beans, drained'
p2658
aS'chicken stock'
p2659
aS'salt and freshly ground black pepper'
p2660
aS'chopped fresh flatleaf parsley'
p2661
atp2662
tp2663
Rp2664
sS'Vegetable gnocchi gratin'
p2665
g2
(g3
g4
(S'http://www.bbc.co.uk/food/recipes/vegetable_gnocchi_gratin_53883'
p2666
S'Cheryl Ferguson'
p2667
(lp2668
S'small butternut squash (about peeled, seeds removed'
p2669
aS'olive oil'
p2670
aS'sea salt and freshly ground black pepper'
p2671
aS'small winter greens, such as kale'
p2672
aS'x bag fresh gnocchi'
p2673
aS'red onion'
p2674
aS'thyme'
p2675
aS'rosemary, leaves only'
p2676
aS'garlic clove'
p2677
aS'chestnut mushrooms'
p2678
aS'small tub (about half-fat creme fraiche'
p2679
aS"soft goats' cheese"
p2680
aS'Japanese panko breadcrumbs, or fresh'
p2681
aS'grated parmesan'
p2682
aS'mixed leaves'
p2683
aS'olive oil'
p2684
aS'lemon'
p2685
atp2686
tp2687
Rp2688
sS'Drowned tomatoes'
p2689
g2
(g3
g4
(S'http://www.bbc.co.uk/food/recipes/drowned_tomatoes_24791'
p2690
S'Alex Lomax and Ed Bond'
p2691
(lp2692
S'olive oil'
p2693
aS'bulb of garlic'
p2694
aS'mixed savoury herbs'
p2695
aS'mixed tomatoes'
p2696
aS'salt and pepper'
p2697
atp2698
tp2699
Rp2700
sS'Spiced rhubarb and orange syrup'
p2701
g2
(g3
g4
(S'http://www.bbc.co.uk/food/recipes/spiced_rhubarb_and_52795'
p2702
S'Sandra'
p2703
(lp2704
S'oranges, juiced'
p2705
aS'cloves'
p2706
aS'rhubarb'
p2707
aS'caster sugar'
p2708
aS'ground cinnamon'
p2709
aS'cinnamon sticks'
p2710
atp2711
tp2712
Rp2713
sS'Artichokes alla Romana'
p2714
g2
(g3
g4
(S'http://www.bbc.co.uk/food/recipes/artichokesallaromana_91747'
p2715
S'Valentine Warner'
p2716
(lp2717
S'small globe artichokes, outer leaves peeled'
p2718
aS'lemons'
p2719
aS'fennel seeds'
p2720
aS'coriander seeds'
p2721
aS'carrots, peeled'
p2722
aS'onion, peeled'
p2723
aS'garlic cloves, peeled'
p2724
aS'celery sticks, trimmed, stringy parts peeled away'
p2725
aS'bay leaves'
p2726
aS'black peppercorns'
p2727
aS'white wine'
p2728
aS'caster sugar'
p2729
aS'sea salt flakes'
p2730
aS'water'
p2731
aS'extra virgin olive oil'
p2732
aS'chopped fresh parsley leaves'
p2733
atp2734
tp2735
Rp2736
sS'Herring in oats with potato salad'
p2737
g2
(g3
g4
(S'http://www.bbc.co.uk/food/recipes/herring_in_oats_with_84871'
p2738
S'Allegra McEvedy'
p2739
(lp2740
S'small new potatoes'
p2741
aS'kale'
p2742
aS'cucumber, cut in half lengthways, seeds scooped out with a spoon'
p2743
aS'spring onions'
p2744
aS'white balsamic vinegar'
p2745
aS'cold-pressed rapeseed oil'
p2746
aS'squeeze lemon juice'
p2747
aS'salt and freshly ground black pepper'
p2748
aS'handfuls medium oatmeal'
p2749
aS'salt and freshly ground black pepper'
p2750
aS'herring fillets'
p2751
aS'dollop English mustard'
p2752
aS'butter'
p2753
aS'splash rapeseed oil'
p2754
aS'lemon wedges'
p2755
aS'small new potatoes'
p2756
aS'kale'
p2757
aS'cucumber, cut in half lengthways, seeds scooped out with a spoon'
p2758
aS'spring onions'
p2759
aS'white balsamic vinegar'
p2760
aS'cold-pressed rapeseed oil'
p2761
aS'squeeze lemon juice'
p2762
aS'salt and freshly ground black pepper'
p2763
aS'handfuls medium oatmeal'
p2764
aS'salt and freshly ground black pepper'
p2765
aS'herring fillets'
p2766
aS'dollop English mustard'
p2767
aS'butter'
p2768
aS'splash rapeseed oil'
p2769
aS'lemon wedges'
p2770
atp2771
tp2772
Rp2773
sS'Apple crumble cocktail'
p2774
g2
(g3
g4
(S'http://www.bbc.co.uk/food/recipes/apple_crumble_cocktail_95570'
p2775
S'Wayne Collins'
p2776
(lp2777
S'whisky'
p2778
aS'apple liqueur'
p2779
aS'lemon juice'
p2780
aS'mixed spice'
p2781
aS'Bramley apple sauce'
p2782
aS'sugar syrup'
p2783
aS'Bramely apple sauce'
p2784
aS'digestive biscuit'
p2785
atp2786
tp2787
Rp2788
sS'Bubble and squeak soup'
p2789
g2
(g3
g4
(S'http://www.bbc.co.uk/food/recipes/bubble_and_squeak_soup_47649'
p2790
S'Nigel Slater'
p2791
(lp2792
S'a medium-sized onion'
p2793
aS'of dripping or butter'
p2794
aS'leftover roasted or boiled potatoes and parsnips'
p2795
aS'chopped thyme leaves'
p2796
aS'turkey'
p2797
aS'salt and ground black pepper'
p2798
aS'lightly cooked leftover greens (such as cabbage or Brussels sprouts)'
p2799
aS'single cream'
p2800
aS'a fine grating of fresh nutmeg'
p2801
atp2802
tp2803
Rp2804
sS'Salmon and asparagus terrine'
p2805
g2
(g3
g4
(S'http://www.bbc.co.uk/food/recipes/salmon_and_asparagus_69637'
p2806
S'Mary Berry'
p2807
(lp2808
S'fillet fresh salmon'
p2809
aS'salt and freshly ground black pepper'
p2810
aS'thick stems asparagus'
p2811
aS'sliced smoked salmon'
p2812
aS'full-fat cream cheese'
p2813
aS'softened butter'
p2814
aS'freshly chopped chives'
p2815
aS'lemon juice'
p2816
aS'cress'
p2817
atp2818
tp2819
Rp2820
sS'Hot knocking mustard'
p2821
g2
(g3
g4
(S'http://www.bbc.co.uk/food/recipes/hot_knocking_mustard_41658'
p2822
S'Lena'
p2823
(lp2824
S'black mustard seeds'
p2825
aS'yellow mustard seeds'
p2826
aS'fennel seeds'
p2827
aS'sea salt flakes'
p2828
aS'freshly ground black pepper'
p2829
aS'kohlrabi, outer leaves removed, cored'
p2830
aS'garlic cloves'
p2831
aS'red wine vinegar'
p2832
aS'light brown muscovado sugar'
p2833
aS'clear honey'
p2834
aS'lemon'
p2835
aS'sprigs fresh lemon thyme, leaves only'
p2836
atp2837
tp2838
Rp2839
sS'Seared salmon with asparagus salsa'
p2840
g2
(g3
g4
(S'http://www.bbc.co.uk/food/recipes/seared_salmon_with_22007'
p2841
S'Monica Galetti'
p2842
(lp2843
S'lemon'
p2844
aS'lime'
p2845
aS'coarse sea salt'
p2846
aS'fresh salmon fillet, skin removed'
p2847
aS'smoked paprika'
p2848
aS'olive oil'
p2849
aS'English asparagus'
p2850
aS'red chilli, seeds removed'
p2851
aS'red onion'
p2852
aS'cucumber, peeled and seeds removed'
p2853
aS'heirloom tomatoes, skinned and seeds removed'
p2854
aS'lime, peeled, pith removed'
p2855
aS'white balsamic vinegar'
p2856
aS'few drops Tabasco sauce'
p2857
aS'salt and freshly ground black pepper'
p2858
aS'chopped fresh coriander'
p2859
atp2860
tp2861
Rp2862
sS'Individual apricot upside-down puddings'
p2863
g2
(g3
g4
(S'http://www.bbc.co.uk/food/recipes/individual_apricot_35278'
p2864
S'Simon Rimmer'
p2865
(lp2866
S'caster sugar'
p2867
aS'apricots'
p2868
aS'caster sugar'
p2869
aS'butter, unsalted'
p2870
aS'lemons'
p2871
aS'free-range eggs'
p2872
aS'self-raising flour'
p2873
aS'apricot brandy'
p2874
aS'pint custard'
p2875
atp2876
tp2877
Rp2878
sS'Egg nog'
p2879
g2
(g3
g4
(S'http://www.bbc.co.uk/food/recipes/egg_nog_64580'
p2880
S'Emily Angle'
p2881
(lp2882
S'medium free-range eggs (preferably organic and as fresh as possible)'
p2883
aS'golden caster sugar'
p2884
aS'whole milk'
p2885
aS'double cream'
p2886
aS'rum, bourbon or a mixture of the two'
p2887
aS'freshly grated nutmeg'
p2888
atp2889
tp2890
Rp2891
sS'Fruits de mer with homemade rye bread and whipped butter'
p2892
g2
(g3
g4
(S'http://www.bbc.co.uk/food/recipes/fruits_de_mer_with_26114'
p2893
S'James Martin'
p2894
(lp2895
S'wholegrain rye flour'
p2896
aS'dark brown muscovado sugar'
p2897
aS'salt'
p2898
aS'fast-action dried yeast'
p2899
aS'unsalted butter'
p2900
aS'langoustines'
p2901
aS'razor clams'
p2902
aS'clams in their shells'
p2903
aS'x cooked lobster'
p2904
aS'medium-sized cooked brown crab'
p2905
aS'oysters'
p2906
aS'cooked shrimps in their shells'
p2907
aS'cooked brown shrimps'
p2908
aS'free-range egg yolks'
p2909
aS'Dijon mustard'
p2910
aS'cider vinegar'
p2911
aS'unwaxed lemon'
p2912
aS'rapeseed oil'
p2913
aS'salt and freshly ground black pepper'
p2914
atp2915
tp2916
Rp2917
sS'Beetroot and ginger chutney'
p2918
g2
(g3
g4
(S'http://www.bbc.co.uk/food/recipes/beetrootandgingerchu_90622'
p2919
S'Nigella Lawson'
p2920
(lp2921
S'fresh beetroot, peeled'
p2922
aS'cooking apples, peeled, quartered, cored'
p2923
aS'red onion'
p2924
aS'piece fresh ginger, peeled'
p2925
aS'crystallised stem ginger'
p2926
aS'soft light brown sugar'
p2927
aS'Maldon salt'
p2928
aS'ground allspice'
p2929
aS'pint red wine vinegar'
p2930
atp2931
tp2932
Rp2933
sS'Slow-cooked lamb shoulder with boulangere potatoes'
p2934
g2
(g3
g4
(S'http://www.bbc.co.uk/food/recipes/slow_cooked_lamb_26033'
p2935
S'Tom Kerridge'
p2936
(lp2937
S'medium onions'
p2938
aS'large waxy potatoes'
p2939
aS'thyme'
p2940
aS'salt and black pepper'
p2941
aS'whole lamb shoulder'
p2942
aS'garlic bulb'
p2943
aS'pint chicken stock'
p2944
aS'cooked French beans (or other green vegetables)'
p2945
atp2946
tp2947
Rp2948
sS'Pan-fried gurnard with broad bean, spinach and mint stew'
p2949
g2
(g3
g4
(S'http://www.bbc.co.uk/food/recipes/pan-fried_gurnard_with_79627'
p2950
S'Cass Titcombe'
p2951
(lp2952
S'olive oil'
p2953
aS'new potatoes'
p2954
aS'onion, peeled'
p2955
aS'garlic clove, peeled'
p2956
aS'chicken stock'
p2957
aS'salt'
p2958
aS'frozen shelled and podded broad beans'
p2959
aS'spinach'
p2960
aS'fresh mint leaves'
p2961
aS'freshly ground black pepper'
p2962
aS'x gurnard fillets, pin boned'
p2963
aS'streaky bacon'
p2964
atp2965
tp2966
Rp2967
sS'Seville orange meringue pie'
p2968
g2
(g3
g4
(S'http://www.bbc.co.uk/food/recipes/sevilleoprangemering_71465'
p2969
S'Mary Berry'
p2970
(lp2971
S'plain flour'
p2972
aS'icing sugar'
p2973
aS'butter'
p2974
aS'egg yolk'
p2975
aS'water'
p2976
aS'large Seville oranges'
p2977
aS'cornflour'
p2978
aS'pint water'
p2979
aS'egg yolks'
p2980
aS'caster sugar'
p2981
aS'egg whites'
p2982
aS'caster sugar'
p2983
atp2984
tp2985
Rp2986
sS'Mackerel on toast with salted cucumber and horseradish'
p2987
g2
(g3
g4
(S'http://www.bbc.co.uk/food/recipes/mackerelontoastwiths_90005'
p2988
S'Valentine Warner'
p2989
(lp2990
S'cucumber, peeled'
p2991
aS'salt'
p2992
aS'grated fresh horseradish'
p2993
aS'heaped creme fraiche'
p2994
aS'English mustard powder'
p2995
aS'fresh mackerel fillets'
p2996
aS'salt and freshly ground black pepper'
p2997
aS'knob of butter'
p2998
aS'slices soda bread, toasted'
p2999
aS'small red onion'
p3000
aS'small lemon'
p3001
atp3002
tp3003
Rp3004
sS'Lamb steaks with anchovy butter, salsify and walnuts'
p3005
g2
(g3
g4
(S'http://www.bbc.co.uk/food/recipes/lambsteakswithanchov_87915'
p3006
S'Martin Blunos'
p3007
(lp3008
S'olive oil'
p3009
aS'garlic clove'
p3010
aS'x lamb leg steaks'
p3011
aS'salt and freshly ground black pepper'
p3012
aS'unsalted butter'
p3013
aS'anchovy essence'
p3014
aS'lemon'
p3015
aS'fresh anchovies'
p3016
aS'salsify'
p3017
aS'lemons'
p3018
aS'pints cold water'
p3019
aS'plain flour'
p3020
aS'salt'
p3021
aS'walnut halves'
p3022
aS'clarified butter'
p3023
aS'salt and freshly ground black pepper'
p3024
aS'walnut oil'
p3025
aS'sultanas'
p3026
aS'caster sugar'
p3027
aS'sherry vinegar'
p3028
aS'unsalted butter'
p3029
aS'chopped flatleaf parsley'
p3030
atp3031
tp3032
Rp3033
sS'Pumpkin and apple chutney'
p3034
g2
(g3
g4
(S'http://www.bbc.co.uk/food/recipes/ramona1_83522'
p3035
S'Pinki Sharma'
p3036
(lp3037
S'pumpkin'
p3038
aS'firm tomatoes'
p3039
aS'Bramley apples'
p3040
aS'onion'
p3041
aS'dried mixed fruit'
p3042
aS'soft light brown sugar'
p3043
aS'salt'
p3044
aS'ground mixed spice'
p3045
aS'ground black pepper'
p3046
aS'cider vinegar'
p3047
aS'fresh herbs'
p3048
atp3049
tp3050
Rp3051
sS'Winter vegetable colcannon'
p3052
g2
(g3
g4
(S'http://www.bbc.co.uk/food/recipes/wintervegetablecolca_73661'
p3053
S'Antony Worrall Thompson'
p3054
(lp3055
S'plain mashed potato'
p3056
aS'kale or savoy cabbage'
p3057
aS'carrots, peeled'
p3058
aS'double cream'
p3059
aS'milk'
p3060
aS'spring onions'
p3061
aS'butter'
p3062
atp3063
tp3064
Rp3065
sS'Plum pudding cocktail'
p3066
g2
(g3
g4
(S'http://www.bbc.co.uk/food/recipes/plum_pudding_cocktail_77949'
p3067
S'Wayne Collins'
p3068
(lp3069
S'plum, quartered'
p3070
aS'cognac'
p3071
aS'amaretto'
p3072
aS'plum liqueur'
p3073
aS'cinnamon syrup'
p3074
aS'freshly grated nutmeg'
p3075
atp3076
tp3077
Rp3078
sS'Roasted duck breast with cranberry chutney and celeriac mash'
p3079
g2
(g3
g4
(S'http://www.bbc.co.uk/food/recipes/roastedduckbreastwit_90793'
p3080
S'James Martin'
p3081
(lp3082
S'duck breasts'
p3083
aS'star anise'
p3084
aS'orange'
p3085
aS'ruby port'
p3086
aS'butter'
p3087
aS'winter greens'
p3088
aS'water'
p3089
aS'caster sugar'
p3090
aS'star anise'
p3091
aS'ground ginger'
p3092
aS'ground cinnamon'
p3093
aS'fresh cranberries'
p3094
aS'dried cranberries'
p3095
aS'ruby port'
p3096
aS'celeriac'
p3097
aS'potatoes'
p3098
aS'olive oil'
p3099
aS'butter'
p3100
atp3101
tp3102
Rp3103
sS'British seaside chowder with saffron'
p3104
g2
(g3
g4
(S'http://www.bbc.co.uk/food/recipes/british_seaside_chowder_59346'
p3105
S'James Martin'
p3106
(lp3107
S'white wine'
p3108
aS'mixed shellfish, such as cockles, clams, mussels and winkles'
p3109
aS'unsalted butter'
p3110
aS'shallot'
p3111
aS'garlic clove'
p3112
aS'fennel bulb'
p3113
aS'leek, white part only'
p3114
aS'waxy potatoes'
p3115
aS'pinches saffron strands'
p3116
aS'star anise'
p3117
aS'chicken stock'
p3118
aS'double cream'
p3119
aS'samphire'
p3120
aS'ripe tomatoes'
p3121
aS'shelled cooked whelks'
p3122
aS'finely chopped fresh chives'
p3123
aS'celery leaves'
p3124
aS'salt and freshly ground black pepper'
p3125
atp3126
tp3127
Rp3128
sS'Apple crumble'
p3129
g2
(g3
g4
(S'http://www.bbc.co.uk/food/recipes/apple_crumble_95357'
p3130
S'Lorraine Pascale'
p3131
(lp3132
S'unsalted butter'
p3133
aS'brown sugar'
p3134
aS'apples (a mixture of cooking and eating varieties), peeled, cored'
p3135
aS'plain flour'
p3136
aS'cold butter'
p3137
aS'ground cinnamon'
p3138
aS'demerara sugar'
p3139
aS'porridge oats'
p3140
atp3141
tp3142
Rp3143
sS'Beef, asparagus and mangetout stir fry'
p3144
g2
(g3
g4
(S'http://www.bbc.co.uk/food/recipes/beefasparagusandmang_85921'
p3145
S'Daniel Galmiche'
p3146
(lp3147
S'scotch beef fillet'
p3148
aS'sake'
p3149
aS'soy sauce'
p3150
aS'grated fresh ginger'
p3151
aS'soft brown sugar'
p3152
aS'garlic clove'
p3153
aS'small red chilli'
p3154
aS'asparagus'
p3155
aS'mangetout'
p3156
aS'sesame oil'
p3157
aS'salt and freshly ground black pepper'
p3158
aS'sesame seeds'
p3159
aS'sprigs fresh coriander'
p3160
atp3161
tp3162
Rp3163
sS'Sangria'
p3164
g2
(g3
g4
(S'http://www.bbc.co.uk/food/recipes/sangria_93847'
p3165
S'Jill Dupleix'
p3166
(lp3167
S'parts red wine'
p3168
aS'part orange juice'
p3169
aS'parts lemonade'
p3170
aS'ice'
p3171
aS'fresh mint'
p3172
aS'sliced fruit such as oranges and lemons'
p3173
atp3174
tp3175
Rp3176
sS"Goats' cheese with chicory orange jam"
p3177
g2
(g3
g4
(S'http://www.bbc.co.uk/food/recipes/goatscheesewithchico_83705'
p3178
S'James Martin'
p3179
(lp3180
S'butter'
p3181
aS'onion'
p3182
aS'clove garlic'
p3183
aS'chicory'
p3184
aS'oranges'
p3185
aS'caster sugar'
p3186
aS'dry white wine'
p3187
aS"small goats' cheese rounds"
p3188
aS'slices white bread'
p3189
aS'butter'
p3190
aS'apple'
p3191
aS'cooked beetroot'
p3192
aS'rocket salad'
p3193
aS'walnut halves'
p3194
aS'vinaigrette'
p3195
atp3196
tp3197
Rp3198
sS'Celeriac and apple soup with bacon and parsley'
p3199
g2
(g3
g4
(S'http://www.bbc.co.uk/food/recipes/celeriac_and_apple_soup_32322'
p3200
S'The Hairy Bikers'
p3201
(lp3202
S'(roughly eating apples'
p3203
aS'butter'
p3204
aS'sunflower oil'
p3205
aS'onions'
p3206
aS'celeriac (roughly'
p3207
aS'large carrot (roughly'
p3208
aS'garlic cloves'
p3209
aS'medium potatoes (roughly'
p3210
aS'small fresh thyme sprigs)'
p3211
aS'bay leaf'
p3212
aS'pints vegetable or chicken stock'
p3213
aS'flaked sea salt and freshly ground black pepper'
p3214
aS'sunflower oil'
p3215
aS'rashers rindless smoked streaky bacon'
p3216
aS'creme fraiche'
p3217
aS'milk'
p3218
aS'small flat leaf parsley'
p3219
atp3220
tp3221
Rp3222
sS'Vegetable and chorizo soup'
p3223
g2
(g3
g4
(S'http://www.bbc.co.uk/food/recipes/vegetable_and_chorizo_81634'
p3224
S'Sam and Mark'
p3225
(lp3226
S'olive oil'
p3227
aS'leek'
p3228
aS'large carrot'
p3229
aS'sweet potato'
p3230
aS'celery stalk'
p3231
aS'sea salt and freshly ground black pepper'
p3232
aS'ground cumin'
p3233
aS'x can chopped tomatoes'
p3234
aS'balsamic vinegar'
p3235
aS'small thyme'
p3236
aS'pint vegetable stock'
p3237
aS'green beans'
p3238
aS'raw chorizo sausage (about'
p3239
atp3240
tp3241
Rp3242
sS'Asparagus with pearl barley and bacon'
p3243
g2
(g3
g4
(S'http://www.bbc.co.uk/food/recipes/asparagus_with_pearl_43154'
p3244
S'Monica Galetti'
p3245
(lp3246
S'chicken stock'
p3247
aS'single cream'
p3248
aS'salt and freshly ground black pepper'
p3249
aS'butter'
p3250
aS'shallot'
p3251
aS'pearl barley'
p3252
aS'white wine'
p3253
aS'pint chicken stock'
p3254
aS'English asparagus'
p3255
aS'bacon lardons'
p3256
aS'cooked and shelled broad beans'
p3257
aS'tomatoes, skinned and seeds removed'
p3258
atp3259
tp3260
Rp3261
sS'Stir-fried crab with green Kampot pepper'
p3262
g2
(g3
g4
(S'http://www.bbc.co.uk/food/recipes/stirfriedcrabwithgre_91769'
p3263
S'Rick Stein'
p3264
(lp3265
S'raw or cooked whole crabs (such as brown crab'
p3266
aS'Kampot green peppercorn vines (available in Asian grocers or online), or green peppercorns in brine'
p3267
aS'dark soy sauce'
p3268
aS'palm sugar (available from Asian grocers; substitute golden caster sugar if unavailable)'
p3269
aS'vegetable oil'
p3270
aS'finely chopped garlic'
p3271
aS'fish sauce'
p3272
aS'spring onions'
p3273
atp3274
tp3275
Rp3276
sS'Christmas pudding sundae'
p3277
g2
(g3
g4
(S'http://www.bbc.co.uk/food/recipes/christmas_pudding_sundae_77748'
p3278
S'Nigel Slater'
p3279
(lp3280
S'a little butter (or leftover brandy butter)'
p3281
aS'leftover cooked Christmas pudding'
p3282
aS'of brandy'
p3283
aS'vanilla ice cream'
p3284
atp3285
tp3286
Rp3287
sS'Pan-fried chicken breast with Jerusalem artichoke risotto and roasted vegetables'
p3288
g2
(g3
g4
(S'http://www.bbc.co.uk/food/recipes/panfriedchickenbreas_84846'
p3289
S'Mark Sargeant'
p3290
(lp3291
S'Label Anglaise chicken'
p3292
aS'garlic bulb'
p3293
aS'fresh thyme'
p3294
aS'salt and freshly ground black pepper'
p3295
aS'chicken stock'
p3296
aS'olive oil'
p3297
aS'slightly salted butter'
p3298
aS'risotto rice'
p3299
aS'Jerusalem artichokes'
p3300
aS'butter'
p3301
aS'double cream'
p3302
aS'parmesan'
p3303
aS'fresh chives'
p3304
aS'baby carrots'
p3305
aS'baby turnips'
p3306
aS'fresh rosemary'
p3307
aS'garlic cloves'
p3308
aS'salt and freshly ground black pepper'
p3309
aS'extra virgin olive oil'
p3310
aS'clear honey'
p3311
aS'sherry vinegar'
p3312
aS'small punnet pea shoots'
p3313
atp3314
tp3315
Rp3316
sS'Strawberry souffle with crumble topping and clotted cream'
p3317
g2
(g3
g4
(S'http://www.bbc.co.uk/food/recipes/strawberry_souffl_with_51589'
p3318
S'Michel Roux Jr.'
p3319
(lp3320
S'strawberries'
p3321
aS'demerara sugar'
p3322
aS'lemon'
p3323
aS'kirsch'
p3324
aS'cornflour'
p3325
aS'free-range egg whites'
p3326
aS'caster sugar'
p3327
aS'clotted cream'
p3328
aS'chopped pistachios'
p3329
aS'nibbed almonds'
p3330
aS'demerara sugar'
p3331
aS'rolled oats'
p3332
aS'desiccated coconut'
p3333
atp3334
tp3335
Rp3336
sS'Fish soup'
p3337
g2
(g3
g4
(S'http://www.bbc.co.uk/food/recipes/fishsoup_93674'
p3338
S'Raymond Blanc'
p3339
(lp3340
S'grey mullet, filleted and cut into large pieces'
p3341
aS'red mullet, filleted and cut into large pieces'
p3342
aS'gurnard, filleted and cut into large pieces'
p3343
aS'olive oil'
p3344
aS'saffron powder'
p3345
aS'garlic cloves, peeled'
p3346
aS'sprigs fresh thyme'
p3347
aS'pinches black pepper'
p3348
aS'light olive oil'
p3349
aS'onion, peeled'
p3350
aS'carrot, peeled'
p3351
aS'fennel bulb'
p3352
aS'sprigs fresh thyme'
p3353
aS'fresh bay leaves'
p3354
aS'garlic cloves, peeled'
p3355
aS'ripe tomatoes'
p3356
aS'sachet saffron powder'
p3357
aS'white wine'
p3358
aS'tomato puree'
p3359
aS'pint water'
p3360
aS'salt and freshly ground black pepper'
p3361
aS'pastis'
p3362
aS'free-range egg yolks'
p3363
aS'crushed garlic'
p3364
aS'olive oil'
p3365
aS'pinches cayenne pepper'
p3366
aS'sachet saffron powder'
p3367
aS'x bread cubes'
p3368
aS'French cheese, such as Comte or Gruyere'
p3369
aS'chopped fresh flatleaf parsley'
p3370
atp3371
tp3372
Rp3373
sS'Valentine cupcakes'
p3374
g2
(g3
g4
(S'http://www.bbc.co.uk/food/recipes/valentinecupcake_93564'
p3375
S'Simon Rimmer'
p3376
(lp3377
S'unsalted butter'
p3378
aS'caster sugar'
p3379
aS'free-range eggs'
p3380
aS'self-raising flour'
p3381
aS'raspberries'
p3382
aS'passion fruit'
p3383
aS'a little milk'
p3384
aS'icing sugar'
p3385
aS'butter'
p3386
aS'vanilla pod'
p3387
aS'drops pink liquid food colouring'
p3388
aS'milk'
p3389
aS'hundreds and thousands'
p3390
atp3391
tp3392
Rp3393
sS'Pasta con le sarde (pasta with sardines)'
p3394
g2
(g3
g4
(S'http://www.bbc.co.uk/food/recipes/pasta_con_le_sarde_pasta_79438'
p3395
S'Matthew Fort'
p3396
(lp3397
S'fresh, wild fennel'
p3398
aS'olive oil'
p3399
aS'brown onion'
p3400
aS'anchovy fillets in oil'
p3401
aS'fresh sardines, scaled'
p3402
aS'strattu or tbsp tomato puree'
p3403
aS'currants'
p3404
aS'pine nuts'
p3405
aS'pinches saffron thread'
p3406
aS'bucatini pasta (or spaghetti)'
p3407
aS'breadcrumbs'
p3408
aS'salt and freshly ground black pepper'
p3409
atp3410
tp3411
Rp3412
sS'Irish fish chowder with soda bread'
p3413
g2
(g3
g4
(S'http://www.bbc.co.uk/food/recipes/irish_fish_chowder_with_08587'
p3414
S'John Torode'
p3415
(lp3416
S'wholemeal flour'
p3417
aS'strong white flour'
p3418
aS'heaped bicarbonate of soda'
p3419
aS'salt'
p3420
aS'buttermilk'
p3421
aS'large free-range egg'
p3422
aS'honey'
p3423
aS'large potato'
p3424
aS'un-dyed smoked haddock fillets'
p3425
aS'bay leaf'
p3426
aS'shallot'
p3427
aS'full-fat milk'
p3428
aS'unsalted butter'
p3429
aS'onion'
p3430
aS'clove garlic'
p3431
aS'sweetcorn kernels (thawed'
p3432
aS'runner beans'
p3433
aS'scallops'
p3434
aS'steamed clams'
p3435
aS'pollock fillet'
p3436
aS'raw king prawns'
p3437
aS'chopped fresh flat-leaf parsley'
p3438
aS'freshly ground black pepper'
p3439
atp3440
tp3441
Rp3442
sS'Oysters Rockefeller'
p3443
g2
(g3
g4
(S'http://www.bbc.co.uk/food/recipes/oystersrockefeller_85977'
p3444
S'Alex Kingston'
p3445
(lp3446
S'fresh oysters in their shell'
p3447
aS'butter'
p3448
aS'small onion'
p3449
aS'chopped fresh parsley'
p3450
aS'spinach'
p3451
aS'fine breadcrumbs'
p3452
atp3453
tp3454
Rp3455
sS'Butternut squash and root veg hotpot'
p3456
g2
(g3
g4
(S'http://www.bbc.co.uk/food/recipes/butternut_squash_and_46813'
p3457
S'Justine Pattison'
p3458
(lp3459
S'sunflower oil'
p3460
aS'small butternut squash (approximately scrubbed, deseeded'
p3461
aS'onions'
p3462
aS'carrots, peeled'
p3463
aS'parsnips, peeled'
p3464
aS'plain flour'
p3465
aS'tin chopped tomatoes'
p3466
aS'tomato puree'
p3467
aS'dried chilli flakes (optional)'
p3468
aS'pesto (optional)'
p3469
aS'hot vegetable stock (made with stock cube)'
p3470
aS'young spinach leaves (optional)'
p3471
aS'salt and freshly ground black pepper'
p3472
aS'self-raising flour'
p3473
aS'frozen butter (or shredded vegetarian suet)'
p3474
aS'cold water'
p3475
aS'salt and freshly ground black pepper'
p3476
atp3477
tp3478
Rp3479
sS'The ultimate fish pie'
p3480
g2
(g3
g4
(S'http://www.bbc.co.uk/food/recipes/theultimatefishpie_87821'
p3481
S'The Hairy Bikers'
p3482
(lp3483
S'potatoes (such as King Edwards'
p3484
aS'salt and white pepper'
p3485
aS'butter'
p3486
aS'grated gruyere cheese'
p3487
aS'pint fish stock'
p3488
aS'dry vermouth'
p3489
aS'onion'
p3490
aS'small bulb of fennel'
p3491
aS'small carrot'
p3492
aS'small stick of celery'
p3493
aS'bay leaf'
p3494
aS'saffron'
p3495
aS'white fish (such as haddock, hake'
p3496
aS'smoked haddock'
p3497
aS'salmon'
p3498
aS'raw prawns'
p3499
aS'unsalted butter'
p3500
aS'plain flour'
p3501
aS'full-fat milk'
p3502
aS'large parsley'
p3503
aS'double cream'
p3504
aS'salt and white pepper'
p3505
aS'butter'
p3506
aS'leaf spinach'
p3507
aS'hard-boiled eggs'
p3508
aS'ciabatta crumbs'
p3509
aS'grated parmesan cheese'
p3510
atp3511
tp3512
Rp3513
sS'Crab and leek tart'
p3514
g2
(g3
g4
(S'http://www.bbc.co.uk/food/recipes/british_crab_and_leek_40568'
p3515
S'The Hairy Bikers'
p3516
(lp3517
S'plain flour'
p3518
aS'wholemeal flour'
p3519
aS'cold butter'
p3520
aS'free-range egg'
p3521
aS'knob of butter'
p3522
aS'medium leeks, trimmed'
p3523
aS'butter'
p3524
aS'half-fat creme fraiche'
p3525
aS'free-range eggs'
p3526
aS'fresh brown crab meat'
p3527
aS'sea salt flakes'
p3528
aS'fresh white crab meat'
p3529
aS'mature cheddar'
p3530
aS'freshly ground black pepper'
p3531
atp3532
tp3533
Rp3534
sS'Rhubarb fool'
p3535
g2
(g3
g4
(S'http://www.bbc.co.uk/food/recipes/rhubarbfool_71270'
p3536
S'Antony Worrall Thompson'
p3537
(lp3538
S'rhubarb'
p3539
aS'caster sugar'
p3540
aS'orange'
p3541
aS'water'
p3542
aS'pint cream'
p3543
aS'egg white'
p3544
atp3545
tp3546
Rp3547
sS'Fresh plum, raspberry and pistachio cake'
p3548
g2
(g3
g4
(S'http://www.bbc.co.uk/food/recipes/fresh_plum_raspberry_and_69953'
p3549
S'Charles Dance'
p3550
(lp3551
S'shelled pistachios'
p3552
aS'butter'
p3553
aS'caster sugar'
p3554
aS'free-range eggs'
p3555
aS'self-raising flour'
p3556
aS'lemon'
p3557
aS'fresh plums, stones removed'
p3558
aS'raspberries'
p3559
aS'icing sugar'
p3560
aS'creme fraiche'
p3561
atp3562
tp3563
Rp3564
sS'Pea and mint risotto'
p3565
g2
(g3
g4
(S'http://www.bbc.co.uk/food/recipes/pea_and_mint_risotto_85063'
p3566
S'Alex Jones'
p3567
(lp3568
S'olive oil'
p3569
aS'onion'
p3570
aS'garlic clove'
p3571
aS'risotto rice'
p3572
aS'white wine'
p3573
aS'about pint hot chicken stock'
p3574
aS'fresh peas or frozen peas'
p3575
aS'small fresh mint'
p3576
aS'double cream'
p3577
aS'butter'
p3578
aS'salt and freshly ground black pepper'
p3579
aS'two handfuls rocket leaves'
p3580
aS'drizzle olive oil'
p3581
aS'drizzle balsamic vinegar'
p3582
aS'parmesan shavings'
p3583
atp3584
tp3585
Rp3586
sS'Clementine cake with passionfruit and limoncello ice cream'
p3587
g2
(g3
g4
(S'http://www.bbc.co.uk/food/recipes/clementine_cake_with_01055'
p3588
S'Kirsty Wark'
p3589
(lp3590
S'clementines (about'
p3591
aS'butter'
p3592
aS'free-range eggs'
p3593
aS'caster sugar'
p3594
aS'ground almonds'
p3595
aS'heaped baking powder'
p3596
aS'clementines'
p3597
aS'caster sugar'
p3598
aS'orange marmalade'
p3599
aS'reserved orange peel'
p3600
aS'granulated sugar'
p3601
aS'water'
p3602
aS'passion fruit'
p3603
aS'double cream'
p3604
aS'full-fat milk'
p3605
aS'limoncello'
p3606
aS'caster sugar'
p3607
aS'freshly-squeezed orange juice, from about oranges'
p3608
aS'caster sugar'
p3609
aS'star anise'
p3610
aS'double cream'
p3611
aS'icing sugar'
p3612
aS'vanilla pod, split'
p3613
aS'lime juice'
p3614
atp3615
tp3616
Rp3617
sS'Bellini cocktail'
p3618
g2
(g3
g4
(S'http://www.bbc.co.uk/food/recipes/bellinicocktail_67941'
p3619
S"Jo' Pratt"
p3620
(lp3621
S'ripe peaches, peeled, halved and stone removed'
p3622
aS'chilled champagne or sparkling wine'
p3623
aS'chilled champagne glasses'
p3624
atp3625
tp3626
Rp3627
sS'Creme de vanille de bourbon with poached rhubarb and blood orange sorbet'
p3628
g2
(g3
g4
(S'http://www.bbc.co.uk/food/recipes/cremedevanilledebour_91183'
p3629
S'Galton Blackiston'
p3630
(lp3631
S'gelatine leaves'
p3632
aS'double cream'
p3633
aS'caster sugar'
p3634
aS'vanilla pods, split'
p3635
aS'caster sugar'
p3636
aS'water'
p3637
aS'freshly squeezed blood orange juice'
p3638
aS'orange liqueur (optional)'
p3639
aS'caster sugar'
p3640
aS'water'
p3641
aS'rhubarb stalks'
p3642
aS'piece root ginger'
p3643
atp3644
tp3645
Rp3646
sS'Artichoke with smoked bacon mayonnaise'
p3647
g2
(g3
g4
(S'http://www.bbc.co.uk/food/recipes/artichoke_with_smoked_62303'
p3648
S'James Martin'
p3649
(lp3650
S'globe artichokes'
p3651
aS'lemons'
p3652
aS'salt'
p3653
aS'plain flour'
p3654
aS'rashers smoked streaky bacon'
p3655
aS'free-range egg yolks'
p3656
aS'Dijon mustard'
p3657
aS'rapeseed oil'
p3658
aS'salt and freshly ground black pepper'
p3659
atp3660
tp3661
Rp3662
sS'Salmon and sea bass ceviche'
p3663
g2
(g3
g4
(S'http://www.bbc.co.uk/food/recipes/salmon_and_sea_bass_14216'
p3664
S'The Hairy Bikers'
p3665
(lp3666
S'skinless salmon fillets'
p3667
aS'medium skinless sea bass fillets'
p3668
aS'red onion, peeled'
p3669
aS'large red chillies, stalks and seeds removed'
p3670
aS'red pepper, stalk and seeds removed'
p3671
aS'limes, juice and zest'
p3672
aS'cayenne pepper'
p3673
aS'extra virgin olive oil'
p3674
aS'fresh coriander leaves'
p3675
aS'ripe avocados, peeled, stone removed'
p3676
aS'mixed baby salad leaves'
p3677
atp3678
tp3679
Rp3680
sS'Green tomato chutney'
p3681
g2
(g3
g4
(S'http://www.bbc.co.uk/food/recipes/green_tomato_chutney_41573'
p3682
S'James Martin'
p3683
(lp3684
S'light brown sugar'
p3685
aS'white wine vinegar'
p3686
aS'shallot, peeled'
p3687
aS'garlic clove, peeled'
p3688
aS'piece fresh root ginger, peeled'
p3689
aS'red chilli'
p3690
aS'sultanas'
p3691
aS'green tomatoes'
p3692
atp3693
tp3694
Rp3695
sS'Homemade lemonade'
p3696
g2
(g3
g4
(S'http://www.bbc.co.uk/food/recipes/homemade_lemonade_12580'
p3697
S'Jayne Rawlings'
p3698
(lp3699
S'lemons, preferably organic, well scrubbed, thinly sliced'
p3700
aS'citric acid'
p3701
aS'caster sugar'
p3702
aS'pints boiling water'
p3703
atp3704
tp3705
Rp3706
sS'Vanilla baked cheesecake with blackberries'
p3707
g2
(g3
g4
(S'http://www.bbc.co.uk/food/recipes/vanilla_baked_cheesecake_59336'
p3708
S'Glynn Purnell'
p3709
(lp3710
S'digestive biscuits'
p3711
aS'butter'
p3712
aS'blackberries'
p3713
aS'caster sugar'
p3714
aS'vanilla pod'
p3715
aS'full-fat cream cheese'
p3716
aS'free-range eggs'
p3717
aS'lemon'
p3718
aS'double cream'
p3719
aS'plain flour'
p3720
aS'caster sugar'
p3721
aS'honey'
p3722
aS'liquid glucose'
p3723
aS'caster sugar'
p3724
aS'bicarbonate of soda'
p3725
aS'freshly ground black pepper (optional)'
p3726
atp3727
tp3728
Rp3729
sS'Grilled mackerel with new potatoes and salad'
p3730
g2
(g3
g4
(S'http://www.bbc.co.uk/food/recipes/grilledmackerelwithj_86201'
p3731
S'James Martin'
p3732
(lp3733
S'new potatoes, such as Jersey Royals'
p3734
aS'salt'
p3735
aS'mackerel fillets'
p3736
aS'wholegrain mustard'
p3737
aS'salt and freshly ground black pepper'
p3738
aS'English mustard'
p3739
aS'white wine vinegar'
p3740
aS'rapeseed oil'
p3741
aS'squeeze lemon juice'
p3742
aS'Little Gem lettuces'
p3743
atp3744
tp3745
Rp3746
sS'Broad bean and feta frittata'
p3747
g2
(g3
g4
(S'http://www.bbc.co.uk/food/recipes/fruitalia_91683'
p3748
S'Valentine Warner'
p3749
(lp3750
S'small broad beans'
p3751
aS'olive oil'
p3752
aS'small red onion, peeled'
p3753
aS'salt and freshly ground black pepper'
p3754
aS'large free-range eggs'
p3755
aS'feta cheese'
p3756
aS'small fresh mint'
p3757
atp3758
tp3759
Rp3760
sS'Rhubarb tarts with rhubarb ice cream'
p3761
g2
(g3
g4
(S'http://www.bbc.co.uk/food/recipes/rhubarbtartwithrhuba_91430'
p3762
S'James Martin'
p3763
(lp3764
S'rhubarb stems, trimmed'
p3765
aS'caster sugar'
p3766
aS'water'
p3767
aS'free-range egg yolks'
p3768
aS'pint full-fat milk'
p3769
aS'pint double cream'
p3770
aS'vanilla pod, split'
p3771
aS'rhubarb stems, trimmed'
p3772
aS'pint cider'
p3773
aS'golden syrup'
p3774
aS'five-spice powder'
p3775
aS'vanilla pod, split'
p3776
aS'full-fat milk'
p3777
aS'vanilla pod'
p3778
aS'caster sugar'
p3779
aS'free-range egg yolks, plus free-range egg'
p3780
aS'heaped cornflour'
p3781
aS'all butter ready-rolled puff pastry'
p3782
aS'plain flour'
p3783
atp3784
tp3785
Rp3786
sS'Damson pies'
p3787
g2
(g3
g4
(S'http://www.bbc.co.uk/food/recipes/damson_pies_35185'
p3788
S'Clarissa Dickson Wright'
p3789
(lp3790
S'plain flour'
p3791
aS'salt'
p3792
aS'pork lard'
p3793
aS'water'
p3794
aS'damsons'
p3795
aS'caster sugar'
p3796
aS'slices membrillo or damson cheese'
p3797
aS'clotted cream or creme fraiche'
p3798
atp3799
tp3800
Rp3801
sS'Roasted courgettes with chilli scrambled eggs'
p3802
g2
(g3
g4
(S'http://www.bbc.co.uk/food/recipes/roastedcourgetteswit_76987'
p3803
S'James Martin'
p3804
(lp3805
S'baby courgettes'
p3806
aS'thyme'
p3807
aS'dried porcini mushrooms, soaked in water until soft'
p3808
aS'olive oil'
p3809
aS'salt and freshly ground black pepper'
p3810
aS'butter'
p3811
aS'free-range eggs'
p3812
aS'chilli flakes'
p3813
aS'saffron'
p3814
aS'mushroom water'
p3815
aS'double cream'
p3816
atp3817
tp3818
Rp3819
sS'Roast chicken with beetroot and halloumi salad'
p3820
g2
(g3
g4
(S'http://www.bbc.co.uk/food/recipes/roast_chicken_with_52211'
p3821
S'James Martin'
p3822
(lp3823
S'cumin seeds'
p3824
aS'ground caraway seeds'
p3825
aS'red chilli'
p3826
aS'sweet smoked paprika'
p3827
aS'garlic cloves'
p3828
aS'tomato puree'
p3829
aS'red wine vinegar'
p3830
aS'large chicken'
p3831
aS'olive oil'
p3832
aS'salt and pepper'
p3833
aS'bulgur wheat'
p3834
aS'beetroot juice'
p3835
aS'olive oil'
p3836
aS'halloumi'
p3837
aS'cooked beetroot'
p3838
aS'shelled pistachios'
p3839
aS'small mint'
p3840
aS'small coriander'
p3841
aS'pomegranate'
p3842
aS'lemon'
p3843
aS'olive oil'
p3844
atp3845
tp3846
Rp3847
sS'Sea bass roasted with rosemary and lemon'
p3848
g2
(g3
g4
(S'http://www.bbc.co.uk/food/recipes/seabassroastedwithro_90285'
p3849
S'Mitch Tonks'
p3850
(lp3851
S'x sea bass'
p3852
aS'fresh rosemary sprigs'
p3853
aS'extra virgin olive oil'
p3854
aS'sea salt'
p3855
aS'lemon'
p3856
aS'extra virgin olive oil'
p3857
atp3858
tp3859
Rp3860
sS'Italian-style stuffed marrow'
p3861
g2
(g3
g4
(S'http://www.bbc.co.uk/food/recipes/italian-style_stuffed_63676'
p3862
S'The Hairy Bikers'
p3863
(lp3864
S'sunflower oil'
p3865
aS'onion'
p3866
aS'medium carrots'
p3867
aS'celery stalks'
p3868
aS'garlic cloves'
p3869
aS'Italian-style sausages'
p3870
aS'dried chilli flakes'
p3871
aS'dried oregano'
p3872
aS'caster sugar'
p3873
aS'plain flour'
p3874
aS'red wine'
p3875
aS'beef stock'
p3876
aS'x can cherry tomatoes'
p3877
aS'bay leaf'
p3878
aS'marrow'
p3879
aS'butter'
p3880
aS'plain flour'
p3881
aS'milk'
p3882
aS'finely grated parmesan'
p3883
aS'mozzarella'
p3884
atp3885
tp3886
Rp3887
sS'Langoustines with summer vegetable stew'
p3888
g2
(g3
g4
(S'http://www.bbc.co.uk/food/recipes/langoustineswithsumm_86088'
p3889
S'Nick Nairn'
p3890
(lp3891
S'large onion'
p3892
aS'leek'
p3893
aS'celery sticks'
p3894
aS'fennel bulb'
p3895
aS'large carrots'
p3896
aS'head of garlic'
p3897
aS'white peppercorns'
p3898
aS'coriander seeds'
p3899
aS'star anise'
p3900
aS'bay leaf'
p3901
aS'mixed herbs, such as chervil, tarragon, parsley'
p3902
aS'pint dry white wine'
p3903
aS'white wine vinegar'
p3904
aS'caster sugar'
p3905
aS'ripe plum tomatoes'
p3906
aS'of Maldon sea salt or other sea salt'
p3907
aS'Tabasco sauce'
p3908
aS'Worcestershire sauce'
p3909
aS'basil leaves'
p3910
aS'live langoustines'
p3911
aS'rosemary sprigs'
p3912
aS'butter'
p3913
aS'small carrots'
p3914
aS'garlic clove'
p3915
aS'baby leeks'
p3916
aS'small courgette'
p3917
aS'mangetout'
p3918
aS'freshly shelled peas'
p3919
aS'finely chopped flatleaf parsley'
p3920
aS'spring onions'
p3921
aS'cherry tomatoes'
p3922
aS'lemon'
p3923
aS'chervil leaves'
p3924
aS'a few chives'
p3925
aS'basil leaves'
p3926
atp3927
tp3928
Rp3929
sS'Fresh oysters, oysters Mornay and Essex cockle chowder'
p3930
g2
(g3
g4
(S'http://www.bbc.co.uk/food/recipes/freshoystersoystersm_92336'
p3931
S'The Hairy Bikers'
p3932
(lp3933
S'unsalted butter'
p3934
aS'olive oil'
p3935
aS'rashers streaky bacon'
p3936
aS'large onion, peeled'
p3937
aS'dry white wine'
p3938
aS'cooked picked cockles, rinsed thoroughly (or raw cockles, in the shells'
p3939
aS'floury potatoes, such as Maris Piper or King Edward'
p3940
aS'milk'
p3941
aS'chopped fresh curly-leaved parsley'
p3942
aS'chopped fresh thyme leaves'
p3943
aS'double cream'
p3944
aS'sea salt flakes and freshly ground white pepper'
p3945
aS'unsalted butter'
p3946
aS'plain flour'
p3947
aS'full-fat milk'
p3948
aS'strong cheddar cheese'
p3949
aS'fresh, good-quality oysters, shucked'
p3950
aS'chopped fresh curly-leaved parsley'
p3951
aS'red wine vinegar'
p3952
aS'finely chopped shallots'
p3953
aS'native or rock oysters (to taste), shucked'
p3954
aS'Tabasco sauce'
p3955
aS'Worcestershire sauce'
p3956
aS'lemon'
p3957
aS'crushed ice'
p3958
aS'buttered sourdough bread'
p3959
atp3960
tp3961
Rp3962
sS'Sweet-and-sour turkey with egg-fried rice'
p3963
g2
(g3
g4
(S'http://www.bbc.co.uk/food/recipes/sweet-and-sour_turkey_59017'
p3964
S'Brian Turner'
p3965
(lp3966
S'dry sherry'
p3967
aS'light soy sauce'
p3968
aS'sesame oil'
p3969
aS'salt'
p3970
aS'cooked leftover turkey'
p3971
aS'vegetable oil'
p3972
aS'free-range egg'
p3973
aS'cornflour'
p3974
aS'pint chicken stock'
p3975
aS'dark soy sauce'
p3976
aS'sesame oil'
p3977
aS'cider vinegar'
p3978
aS'tomato ketchup'
p3979
aS'green peppers, stalk and seeds removed'
p3980
aS'spring onions, trimmed'
p3981
aS'juice from a satsuma'
p3982
aS'cornflour'
p3983
aS'vegetable oil'
p3984
aS'cooked basmati rice'
p3985
aS'free-range eggs'
p3986
aS'spring onions, trimmed'
p3987
aS'soy sauce'
p3988
atp3989
tp3990
Rp3991
sS'Baked aubergine rolls filled with mozzarella'
p3992
g2
(g3
g4
(S'http://www.bbc.co.uk/food/recipes/bakedauberginerollsf_71302'
p3993
S'Gennaro Contaldo'
p3994
(lp3995
S'large aubergine'
p3996
aS'plain flour'
p3997
aS'eggs'
p3998
aS'olive oil for frying'
p3999
aS'parmesan cheese (or a similar vegetarian hard cheese)'
p4000
aS'large fresh basil leaves'
p4001
aS'mozzarella cheese'
p4002
aS'salt'
p4003
aS'freshly ground black pepper'
p4004
aS'extra virgin olive oil'
p4005
aS'garlic clove'
p4006
aS'small onion'
p4007
aS'celery stalk'
p4008
aS'tin of plum tomatoes'
p4009
aS'leafy green salad'
p4010
atp4011
tp4012
Rp4013
sS'Salt-crust baked celariac with creme fraiche'
p4014
g2
(g3
g4
(S'http://www.bbc.co.uk/food/recipes/salt-crust_baked_48801'
p4015
S'James Martin'
p4016
(lp4017
S'strong white bread flour'
p4018
aS'fine sea salt'
p4019
aS'egg whites'
p4020
aS'large celeriac'
p4021
aS'creme fraiche'
p4022
aS'extra virgin olive oil'
p4023
aS'freshly ground black pepper'
p4024
aS'finely chopped fresh chives'
p4025
aS'watercress'
p4026
aS'chive flowers (optional)'
p4027
atp4028
tp4029
Rp4030
sS'Aromatic wok fried beans'
p4031
g2
(g3
g4
(S'http://www.bbc.co.uk/food/recipes/aromatic_wok_fried_beans_61020'
p4032
S'Gok Wan'
p4033
(lp4034
S'groundnut oil'
p4035
aS'garlic cloves'
p4036
aS'a fresh red chilli'
p4037
aS'piece of fresh ginger'
p4038
aS'spring onions'
p4039
aS'water chestnuts'
p4040
aS'skinless peanuts'
p4041
aS'dried shrimps'
p4042
aS'Shaoxing rice wine or dry sherry'
p4043
aS'fine French beans'
p4044
aS'fish sauce'
p4045
aS'light soy sauce'
p4046
aS'of caster sugar'
p4047
aS'ground white pepper'
p4048
aS'sesame oil'
p4049
atp4050
tp4051
Rp4052
sS'Globe artichoke salad'
p4053
g2
(g3
g4
(S'http://www.bbc.co.uk/food/recipes/globeartichokesalad_90217'
p4054
S'Paul Merrett'
p4055
(lp4056
S'large globe artichoke per person'
p4057
aS'olive oil'
p4058
aS'shallots'
p4059
aS'head of garlic'
p4060
aS'sprigs fresh thyme'
p4061
aS'plum tomatoes'
p4062
aS'dry white wine'
p4063
aS'pint water'
p4064
aS'mixed mushrooms'
p4065
aS'olive oil'
p4066
aS'garlic cloves'
p4067
aS'lemon'
p4068
aS'sherry vinegar'
p4069
aS'extra virgin olive oil'
p4070
aS'grated parmesan'
p4071
aS'cracked black pepper'
p4072
aS'of rock salt'
p4073
aS'cloves garlic'
p4074
aS'cherry tomatoes, halved, drizzled with olive oil, sprinkled with garlic and thyme and cooked for one hour minutes in a low oven'
p4075
aS'selection of lettuce leaves such as Little Gem'
p4076
atp4077
tp4078
Rp4079
sS'Petalberry jam'
p4080
g2
(g3
g4
(S'http://www.bbc.co.uk/food/recipes/petalberry_jam_79158'
p4081
S'Gary Murdock and Pete Taylor'
p4082
(lp4083
S'strawberries, ideally Albion strawberries'
p4084
aS'jam sugar'
p4085
aS'lemon'
p4086
aS'food-grade scented rose'
p4087
aS'rosewater'
p4088
aS'knob butter (optional)'
p4089
atp4090
tp4091
Rp4092
sS'Pomegranate panna cotta with pomegranate and orange caramel'
p4093
g2
(g3
g4
(S'http://www.bbc.co.uk/food/recipes/pomegranatepanacotta_87819'
p4094
S'James Martin'
p4095
(lp4096
S'leaves gelatine'
p4097
aS'pomegranate juice'
p4098
aS'caster sugar'
p4099
aS'orange zest'
p4100
aS'double cream'
p4101
aS'pomegranate'
p4102
aS'oranges'
p4103
aS'pomegranate'
p4104
aS'caster sugar'
p4105
aS'pomegranate juice'
p4106
atp4107
tp4108
Rp4109
sS"Oyster po'boys"
p4110
g2
(g3
g4
(S'http://www.bbc.co.uk/food/recipes/oysterpoboys_80061'
p4111
S'The Hairy Bikers'
p4112
(lp4113
S'freshly shucked oysters'
p4114
aS'grapeseed oil or vegetable oil'
p4115
aS'small jar mayonnaise'
p4116
aS'chopped fresh tarragon'
p4117
aS'capers'
p4118
aS'finely chopped shallots'
p4119
aS'French mustard'
p4120
aS'Tabasco'
p4121
aS'tomato puree'
p4122
aS'lemon juice'
p4123
aS'red wine vinegar'
p4124
aS'cayenne pepper'
p4125
aS'horseradish sauce'
p4126
aS'cornmeal'
p4127
aS'ground cumin'
p4128
aS'ground fennel'
p4129
aS'cayenne pepper'
p4130
aS'salt and freshly ground black pepper'
p4131
aS'eggs'
p4132
aS'milk'
p4133
aS'French stick'
p4134
aS'butter'
p4135
aS'crisp lettuce, such as cos'
p4136
atp4137
tp4138
Rp4139
sS'Cranberry and Cumberland sauce'
p4140
g2
(g3
g4
(S'http://www.bbc.co.uk/food/recipes/cranberryandcumberla_70984'
p4141
S'Antony Worrall Thompson'
p4142
(lp4143
S'fresh cranberries'
p4144
aS'ruby port'
p4145
aS'caster sugar'
p4146
aS'fresh orange juice'
p4147
aS'corn flour'
p4148
aS'English mustard powder'
p4149
aS'lemon juice'
p4150
aS'of ground cloves'
p4151
aS'sultanas'
p4152
aS'flaked almonds'
p4153
aS'grated orange rind'
p4154
aS'grated lemon rind'
p4155
aS'salt'
p4156
atp4157
tp4158
Rp4159
sS'Chicken with forty cloves of garlic'
p4160
g2
(g3
g4
(S'http://www.bbc.co.uk/food/recipes/chicken_with_40_cloves_22211'
p4161
S'The Hairy Bikers'
p4162
(lp4163
S'shallots (small ones not banana shallots)'
p4164
aS'oven-ready fresh chicken'
p4165
aS'lemon'
p4166
aS'large bay leaf'
p4167
aS'finely chopped fresh thyme'
p4168
aS'butter'
p4169
aS'sunflower oil'
p4170
aS'garlic cloves (from bulbs)'
p4171
aS'vermouth'
p4172
aS'chicken stock (made with stock cube)'
p4173
aS'chopped fresh tarragon leaves'
p4174
aS'double cream or creme fraiche'
p4175
aS'flaked sea salt and freshly ground black pepper'
p4176
aS'baguette'
p4177
aS'medium floury potatoes'
p4178
aS'butter'
p4179
aS'rindless smoked streaky bacon rashers'
p4180
aS'fresh kale'
p4181
aS'spring onions'
p4182
aS'double cream'
p4183
aS'flaked sea salt and freshly ground black pepper'
p4184
atp4185
tp4186
Rp4187
sS'Pumpkin risotto'
p4188
g2
(g3
g4
(S'http://www.bbc.co.uk/food/recipes/pumpkinrisottowithcr_13723'
p4189
S'Hugh Fearnley-Whittingstall'
p4190
(lp4191
S'pint vegetable or chicken stock'
p4192
aS'small onion'
p4193
aS'fresh sage leaves'
p4194
aS'olive oil'
p4195
aS'arborio (risotto) rice'
p4196
aS'pumpkin or butternut squash'
p4197
aS'butter'
p4198
aS'salt and freshly ground black pepper'
p4199
aS'fresh sage leaves'
p4200
aS'sunflower oil'
p4201
aS'piece fresh Parmesan'
p4202
atp4203
tp4204
Rp4205
sS'Chicken and leek pie'
p4206
g2
(g3
g4
(S'http://www.bbc.co.uk/food/recipes/chickenandleekpie_90191'
p4207
S'Lesley Waters'
p4208
(lp4209
S'plain flour'
p4210
aS'salt'
p4211
aS'cold lard'
p4212
aS'cold butter'
p4213
aS'cold water'
p4214
aS'free-range egg'
p4215
aS'butter'
p4216
aS'flour'
p4217
aS'pint milk'
p4218
aS'double cream'
p4219
aS'Dijon mustard'
p4220
aS'chicken stock cube'
p4221
aS'large leeks'
p4222
aS'butter'
p4223
aS'crisp eating apples'
p4224
aS'bacon lardons, or streaky bacon'
p4225
aS'boneless chicken thighs'
p4226
aS'tarragon'
p4227
aS'freshly ground black pepper'
p4228
atp4229
tp4230
Rp4231
sS'Anatra con melagrana (duck with pomegranate) and sauteed escarole'
p4232
g2
(g3
g4
(S'http://www.bbc.co.uk/food/recipes/anatraconmelagranadu_84995'
p4233
S'Gennaro Contaldo'
p4234
(lp4235
S'skinless duck breasts'
p4236
aS'salt and freshly ground black pepper'
p4237
aS'plain flour'
p4238
aS'butter'
p4239
aS'olive oil'
p4240
aS'pomegranates'
p4241
aS'escarole'
p4242
aS'olive oil'
p4243
aS'garlic cloves'
p4244
atp4245
tp4246
Rp4247
sS'Beef Wellington with purple broccoli and jus'
p4248
g2
(g3
g4
(S'http://www.bbc.co.uk/food/recipes/beefwellingtonwithne_84172'
p4249
S'James Martin'
p4250
(lp4251
S'plain flour'
p4252
aS'very cold butter'
p4253
aS'salt'
p4254
aS'ice-cold water'
p4255
aS'free-range egg yolks, beaten'
p4256
aS'free-range eggs'
p4257
aS'plain flour'
p4258
aS'milk'
p4259
aS'knob of butter'
p4260
aS'butter'
p4261
aS'Portobello mushrooms'
p4262
aS'large leaf spinach'
p4263
aS'beef fillet'
p4264
aS'freshly ground black pepper'
p4265
aS'chicken liver pate'
p4266
aS'purple sprouting broccoli'
p4267
aS'olive oil'
p4268
aS'beef stock'
p4269
aS'red wine'
p4270
atp4271
tp4272
Rp4273
sS'Roasted quail with watermelon, spring onions, cobnuts and quail vinaigrette'
p4274
g2
(g3
g4
(S'http://www.bbc.co.uk/food/recipes/roastedquailwithwate_86956'
p4275
S'Marcus Wareing'
p4276
(lp4277
S'chicken stock'
p4278
aS'sprigs thyme'
p4279
aS'bulb garlic'
p4280
aS'quails'
p4281
aS'pomace oil or good quality olive oil'
p4282
aS'unsalted butter'
p4283
aS'cobnuts, shelled, finely chopped'
p4284
aS'olive oil'
p4285
aS'quail legs (removed from the quail)'
p4286
aS'large shallots'
p4287
aS'sprigs fresh thyme'
p4288
aS'sprigs fresh rosemary'
p4289
aS'approximately brown chicken stock'
p4290
aS'extra virgin olive oil'
p4291
aS'white wine vinegar'
p4292
aS'salt and freshly ground black pepper'
p4293
aS'butter'
p4294
aS'garlic clove'
p4295
aS'bay leaf'
p4296
aS'spring onions'
p4297
aS'chicken stock'
p4298
aS'slice watermelon, peel removed'
p4299
aS'olive oil'
p4300
aS'freshly ground black pepper'
p4301
atp4302
tp4303
Rp4304
sS'Stuffed trout and purple sprouting broccoli'
p4305
g2
(g3
g4
(S'http://www.bbc.co.uk/food/recipes/troteripieneelegates_86355'
p4306
S'Gennaro Contaldo'
p4307
(lp4308
S'hazelnuts'
p4309
aS'almonds'
p4310
aS'pine nuts'
p4311
aS'canned anchovy fillets in oil'
p4312
aS'garlic clove'
p4313
aS'capers in brine'
p4314
aS'free-range eggs'
p4315
aS'grissini (Italian breadsticks)'
p4316
aS'fresh mint'
p4317
aS'parmesan cheese'
p4318
aS'lemon'
p4319
aS'salt and freshly ground black pepper'
p4320
aS'whole trout, each about scaled, gutted'
p4321
aS'butter'
p4322
aS'salt and freshly ground black pepper'
p4323
aS'purple sprouting broccoli'
p4324
aS'olive oil'
p4325
aS'cloves garlic (or to taste)'
p4326
aS'lemon'
p4327
atp4328
tp4329
Rp4330
sS'Oxtail curry with pink grapefruit chutney'
p4331
g2
(g3
g4
(S'http://www.bbc.co.uk/food/recipes/oxtail_curry_with_pink_03375'
p4332
S'Hardeep Singh Kohli'
p4333
(lp4334
S'vegetable oil'
p4335
aS'cumin seeds'
p4336
aS'star anise'
p4337
aS'green cardamom pods'
p4338
aS'black cardamom pod'
p4339
aS'black peppercorns'
p4340
aS'large red onions'
p4341
aS'garlic cloves'
p4342
aS'Scotch bonnet chilli, seeds removed'
p4343
aS'piece root ginger'
p4344
aS'orange'
p4345
aS'tomato puree'
p4346
aS'ground turmeric'
p4347
aS'garam masala'
p4348
aS'ground coriander'
p4349
aS'salt and freshly ground pepper'
p4350
aS'large oxtail pieces'
p4351
aS'passata'
p4352
aS'bay leaves'
p4353
aS'small finely chopped coriander leaves'
p4354
aS'plain basmati rice'
p4355
aS'pink grapefruit'
p4356
aS'red onion'
p4357
aS'red chilli, seeds removed'
p4358
aS'small mint leaves'
p4359
aS'small coriander, stalks finely chopped'
p4360
aS'limes'
p4361
atp4362
tp4363
Rp4364
sS'Delice au cassis'
p4365
g2
(g3
g4
(S'http://www.bbc.co.uk/food/recipes/deliceaucassis_86299'
p4366
S'James Martin'
p4367
(lp4368
S'sugar'
p4369
aS'water'
p4370
aS'liquid glucose'
p4371
aS'blackcurrants'
p4372
aS'sorbet syrup (see above)'
p4373
aS'sugar'
p4374
aS'water'
p4375
aS'free-range egg white'
p4376
aS'gelatine leaves'
p4377
aS'cold water'
p4378
aS'blackcurrant puree (see above)'
p4379
aS'powdered milk'
p4380
aS'vanilla pod'
p4381
aS'medium free-range egg yolks'
p4382
aS'caster sugar'
p4383
aS'Italian meringue (see above)'
p4384
aS'creme de cassis'
p4385
aS'double cream'
p4386
aS'ready-made round sponge flan base'
p4387
aS'sorbet syrup (see above)'
p4388
aS'blackcurrant puree (see above)'
p4389
aS'gelatine leaves'
p4390
aS'cold water'
p4391
aS'sorbet syrup (see above)'
p4392
aS'blackcurrant puree (see above)'
p4393
atp4394
tp4395
Rp4396
sS'Peach and blueberry streusel cake'
p4397
g2
(g3
g4
(S'http://www.bbc.co.uk/food/recipes/peach_and_blueberry_06916'
p4398
S'None listed'
p4399
(lp4400
S'self-raising flour'
p4401
aS'unsalted butter'
p4402
aS'soft light brown sugar'
p4403
aS'ground cinnamon'
p4404
aS'demerara sugar'
p4405
aS'butter'
p4406
aS'plain flour'
p4407
aS'granulated sugar'
p4408
aS'light soft brown sugar'
p4409
aS'baking powder'
p4410
aS'salt'
p4411
aS'free-range eggs'
p4412
aS'whole milk'
p4413
aS'fresh blueberries'
p4414
aS'x tin peach slices in syrup'
p4415
aS'blueberries'
p4416
aS'x tin peach slices in syrup'
p4417
aS'caster sugar'
p4418
aS'plain flour'
p4419
aS'lemon juice'
p4420
atp4421
tp4422
Rp4423
sS'Venison casserole'
p4424
g2
(g3
g4
(S'http://www.bbc.co.uk/food/recipes/venisoncasserole_83746'
p4425
S'Elizabeth Guy'
p4426
(lp4427
S'olive oil'
p4428
aS'butter'
p4429
aS'onions'
p4430
aS'fresh garlic cloves'
p4431
aS'rashers smoked bacon'
p4432
aS'mushrooms'
p4433
aS'haunch or shoulder of venison'
p4434
aS'bottle red wine'
p4435
aS'water'
p4436
aS'beef stock cubes'
p4437
aS'redcurrant jelly'
p4438
aS'salt and freshly ground black pepper'
p4439
aS'cornflour'
p4440
aS'punnet redcurrants'
p4441
aS'sprigs rosemary or thyme'
p4442
aS'new potatoes'
p4443
aS'wilted spinach'
p4444
atp4445
tp4446
Rp4447
sS'Rhubarb and custard tart'
p4448
g2
(g3
g4
(S'http://www.bbc.co.uk/food/recipes/rhubarb_and_custard_tart_01442'
p4449
S'The Hairy Bikers'
p4450
(lp4451
S'plain flour'
p4452
aS'cold butter'
p4453
aS'medium free-range egg'
p4454
aS'medium free-range eggs'
p4455
aS'medium free-range egg yolks'
p4456
aS'caster sugar'
p4457
aS'whole milk'
p4458
aS'double cream'
p4459
aS'vanilla pod'
p4460
aS'caster sugar'
p4461
aS'rhubarb (preferably forced rhubarb)'
p4462
atp4463
tp4464
Rp4465
sS'Grilled lamb with feta and lemon'
p4466
g2
(g3
g4
(S'http://www.bbc.co.uk/food/recipes/grilledlambwithfetaa_92373'
p4467
S'Nigel Slater'
p4468
(lp4469
S'small fresh oregano sprigs'
p4470
aS'small fresh thyme sprigs'
p4471
aS'fruity olive oil'
p4472
aS'salt and freshly ground black pepper'
p4473
aS'block good-quality feta cheese'
p4474
aS'lemon, juice only'
p4475
aS'lamb cutlets'
p4476
atp4477
tp4478
Rp4479
sS'Rhubarb and blood orange crumble'
p4480
g2
(g3
g4
(S'http://www.bbc.co.uk/food/recipes/rhubarb_and_blood_orange_96294'
p4481
S'Simon Rimmer'
p4482
(lp4483
S'rhubarb'
p4484
aS'blood oranges'
p4485
aS'blood oranges'
p4486
aS'caster sugar'
p4487
aS'star anise'
p4488
aS'cinnamon stick'
p4489
aS'vanilla pod, split lengthways'
p4490
aS'unsalted butter'
p4491
aS'plain flour'
p4492
aS'demerara sugar'
p4493
aS'ground cinnamon'
p4494
aS'flaked almonds'
p4495
aS'clotted cream or custard'
p4496
atp4497
tp4498
Rp4499
sS'Chermoula-baked sea bass with quinoa, tomatillo and preserved lemon salad, spiced toasted seeds and tahini cream'
p4500
g2
(g3
g4
(S'http://www.bbc.co.uk/food/recipes/chermoulabakedseabas_93826'
p4501
S'Anna Hansen'
p4502
(lp4503
S'olive oil'
p4504
aS'red onion, peeled'
p4505
aS'sweet smoked paprika'
p4506
aS'sherry vinegar'
p4507
aS'quinoa (uncooked weight)'
p4508
aS'medium tomatillos'
p4509
aS'preserved lemon rind, pulp removed'
p4510
aS'chopped fresh coriander, plus extra whole leaves'
p4511
aS'finely chopped fresh mint leaves'
p4512
aS'lime'
p4513
aS'olive oil'
p4514
aS'fresh curry leaves'
p4515
aS'fennel seeds'
p4516
aS'poppy seeds'
p4517
aS'kalonji (black onion) seeds or nigella seeds'
p4518
aS'black mustard seeds'
p4519
aS'sunflower seeds'
p4520
aS'pumpkin seeds'
p4521
aS'amchur (dried, ground'
p4522
aS'salt'
p4523
aS'x sea bass fillets'
p4524
aS'cumin seeds, toasted'
p4525
aS'coriander seeds, toasted'
p4526
aS'sweet smoked paprika'
p4527
aS'dried chilli flakes'
p4528
aS'fresh root ginger, peeled'
p4529
aS'fresh turmeric, peeled'
p4530
aS'garlic cloves, peeled'
p4531
aS'banana shallot, peeled'
p4532
aS'lemons'
p4533
aS'flatleaf parsley leaves'
p4534
aS'fresh coriander'
p4535
aS'salt'
p4536
aS'extra virgin olive oil'
p4537
aS'olive oil'
p4538
aS'tahini'
p4539
aS'lemons'
p4540
aS'water'
p4541
aS'salt'
p4542
aS'mustard'
p4543
aS'drizzle extra virgin olive oil'
p4544
aS'lime'
p4545
atp4546
tp4547
Rp4548
sS'Cobnut, wild mushroom and chestnut stir fry'
p4549
g2
(g3
g4
(S'http://www.bbc.co.uk/food/recipes/cobnutwildmushrooman_84174'
p4550
S'James Martin'
p4551
(lp4552
S'butter'
p4553
aS'onion'
p4554
aS'sprigs fresh thyme'
p4555
aS'mixed wild mushrooms'
p4556
aS'shelled fresh cobnuts'
p4557
aS'chestnuts, roasted'
p4558
aS'salt and freshly ground black pepper'
p4559
aS'roast chicken'
p4560
atp4561
tp4562
Rp4563
sS'Chocolate cookies with scarlet fruit'
p4564
g2
(g3
g4
(S'http://www.bbc.co.uk/food/recipes/chocolate_cookies_with_95245'
p4565
S'Nigel Slater'
p4566
(lp4567
S'dark chocolate at least cocoa solids'
p4568
aS'butter'
p4569
aS'light muscovado sugar'
p4570
aS'free-range eggs'
p4571
aS'vanilla extract'
p4572
aS'skinned hazelnuts'
p4573
aS'self-raising flour'
p4574
aS'of fresh cherries and raspberries'
p4575
atp4576
tp4577
Rp4578
sS'Wild garlic barley risotto with breast of guinea fowl, curly kale and beer-poached onions'
p4579
g2
(g3
g4
(S'http://www.bbc.co.uk/food/recipes/wild_garlic_barley_10985'
p4580
S'James Martin'
p4581
(lp4582
S'pints chicken stock'
p4583
aS'pearl barley'
p4584
aS'wild garlic'
p4585
aS'grated parmesan'
p4586
aS'lemon'
p4587
aS'salt'
p4588
aS'crowns of guinea fowl'
p4589
aS'unsalted butter'
p4590
aS'dark ale'
p4591
aS'small white onions'
p4592
aS'olive oil'
p4593
aS'butter'
p4594
aS'head kale'
p4595
aS'unsalted butter'
p4596
atp4597
tp4598
Rp4599
sS'Clams with beer, black beans and ginger'
p4600
g2
(g3
g4
(S'http://www.bbc.co.uk/food/recipes/clamswithbeerblackbe_91775'
p4601
S'Rick Stein'
p4602
(lp4603
S'carpetshell clams'
p4604
aS'fermented salted Chinese black beans'
p4605
aS'sugar'
p4606
aS'sesame oil'
p4607
aS'vegetable oil'
p4608
aS'garlic'
p4609
aS'fresh root ginger, peeled'
p4610
aS'red chilli, halved lengthways'
p4611
aS'lager-style beer'
p4612
aS'lime'
p4613
aS'spring onions'
p4614
aS'fresh coriander leaves'
p4615
atp4616
tp4617
Rp4618
sS'Cherry tomato and mozzarella salad'
p4619
g2
(g3
g4
(S'http://www.bbc.co.uk/food/recipes/cherry_tomato_and_74745'
p4620
S'Mary Berry'
p4621
(lp4622
S'small ripe tomatoes on the vine'
p4623
aS'mozzarella pearls'
p4624
aS'about basil leaves'
p4625
aS'olive oil'
p4626
aS'balsamic vinegar'
p4627
aS'salt and pepper'
p4628
atp4629
tp4630
Rp4631
sS'Cured mackerel and gooseberry salad'
p4632
g2
(g3
g4
(S'http://www.bbc.co.uk/food/recipes/cured_mackerel_and_45607'
p4633
S'Jason Atherton'
p4634
(lp4635
S'mackerel, filleted'
p4636
aS'cucumber'
p4637
aS'salt'
p4638
aS'sugar'
p4639
aS'free-range egg yolks'
p4640
aS'Dijon mustard'
p4641
aS'white wine vinegar'
p4642
aS'herb oil (this can be made by blending extra virgin olive oil with a few sprigs of fresh dill using a hand-held blender)'
p4643
aS'salt'
p4644
aS'celery stalks, trimmed'
p4645
aS'handfuls toasted walnuts'
p4646
aS'apples, peeled, core removed'
p4647
aS'fresh gooseberries'
p4648
aS'olive oil'
p4649
aS'baby onions'
p4650
aS'handfuls rocket leaves'
p4651
atp4652
tp4653
Rp4654
sS'Sole poached in cider sauce with parsley and bacon crumbs and cavolo nero'
p4655
g2
(g3
g4
(S'http://www.bbc.co.uk/food/recipes/sole_poached_in_cider_37454'
p4656
S'The Hairy Bikers'
p4657
(lp4658
S'rashers treacle-cured bacon'
p4659
aS'small parsley'
p4660
aS'stale breadcrumbs'
p4661
aS'cavolo nero'
p4662
aS'olive oil'
p4663
aS'knob of butter'
p4664
aS'garlic clove'
p4665
aS'about live mussels'
p4666
aS'about good quality dry cider'
p4667
aS'olive oil'
p4668
aS'banana shallot'
p4669
aS'fresh bay leaf'
p4670
aS'sprigs fresh thyme'
p4671
aS'fillets sole'
p4672
aS'about fish stock'
p4673
aS'about double cream'
p4674
aS'salt and freshly ground black pepper'
p4675
atp4676
tp4677
Rp4678
sS'Langoustine and samphire stir fry'
p4679
g2
(g3
g4
(S'http://www.bbc.co.uk/food/recipes/tigerprawnandsamphir_89272'
p4680
S'Ching-He Huang'
p4681
(lp4682
S'groundnut oil'
p4683
aS'garlic cloves'
p4684
aS'cooked langoustines (or other large prawns)'
p4685
aS'Shaoxing rice wine'
p4686
aS'fresh samphire, woody stems removed, or marsh samphire'
p4687
aS'baby leeks'
p4688
aS'spring onions'
p4689
aS'light soy sauce'
p4690
aS'sea salt'
p4691
atp4692
tp4693
Rp4694
sS'Roast pheasant and bread sauce'
p4695
g2
(g3
g4
(S'http://www.bbc.co.uk/food/recipes/roast_pheasant_and_bread_70943'
p4696
S'Raymond Blanc'
p4697
(lp4698
S'pheasants each), oven-ready'
p4699
aS'rapeseed oil (or other non-scented oil)'
p4700
aS'unsalted butter (optional)'
p4701
aS'sea salt and freshly ground black pepper'
p4702
aS'red wine'
p4703
aS'ruby port'
p4704
aS'crushed juniper berries'
p4705
aS'fresh thyme'
p4706
aS'unsalted butter'
p4707
aS'white onion'
p4708
aS'bay leaf'
p4709
aS'fresh thyme'
p4710
aS'cloves'
p4711
aS'pinches salt'
p4712
aS'small bacon lardons'
p4713
aS'full-fat milk'
p4714
aS'slice white bread'
p4715
atp4716
tp4717
Rp4718
sS'Victorian sugar plums'
p4719
g2
(g3
g4
(S'http://www.bbc.co.uk/food/recipes/victoriansugarplums_92623'
p4720
S'None listed'
p4721
(lp4722
S'sugar (approx'
p4723
aS'jar whole plums (preserved in syrup)'
p4724
atp4725
tp4726
Rp4727
sS'Pasta with courgette sauce and spinach balls'
p4728
g2
(g3
g4
(S'http://www.bbc.co.uk/food/recipes/pastawithcourgettesa_93036'
p4729
S'Antonio Carluccio'
p4730
(lp4731
S'spinach leaves, washed thoroughly'
p4732
aS'free-range eggs'
p4733
aS'freshly grated nutmeg'
p4734
aS'garlic clove'
p4735
aS'fresh white breadcrumbs'
p4736
aS'parmesan, or similar vegetarian hard cheese'
p4737
aS'salt and freshly ground black pepper'
p4738
aS'olive oil'
p4739
aS'olive oil'
p4740
aS'garlic cloves, peeled'
p4741
aS'chilli'
p4742
aS'courgettes, trimmed'
p4743
aS'parmesan, or similar vegetarian hard cheese'
p4744
aS'salt and freshly ground black pepper'
p4745
aS'rigatoni, cooked according to packet instructions'
p4746
atp4747
tp4748
Rp4749
sS'Strawberry and white chocolate cheesecake'
p4750
g2
(g3
g4
(S'http://www.bbc.co.uk/food/recipes/strawberry_and_white_07789'
p4751
S'James Martin'
p4752
(lp4753
S'white chocolate'
p4754
aS'strawberries, hulls removed'
p4755
aS'caster sugar'
p4756
aS'gelatine leaves'
p4757
aS'large ready-made sponge flan case'
p4758
aS'fruit liqueur'
p4759
aS'full-fat cream cheese'
p4760
aS'creme fraiche'
p4761
aS'double cream'
p4762
aS'vanilla pod, split in half lengthways'
p4763
atp4764
tp4765
Rp4766
sS'Mackerel fillet with dressed crab, pickled vegetables and herb oil'
p4767
g2
(g3
g4
(S'http://www.bbc.co.uk/food/recipes/mackerel_fillet_with_45038'
p4768
S'James Martin'
p4769
(lp4770
S'baby turnips, trimmed'
p4771
aS'radishes, preferably Breakfast radishes, trimmed'
p4772
aS'cucumber, peeled'
p4773
aS'white wine vinegar'
p4774
aS'sugar'
p4775
aS'salt'
p4776
aS'fresh parsley'
p4777
aS'fresh chives'
p4778
aS'fresh coriander'
p4779
aS'oil'
p4780
aS'free-range egg yolks'
p4781
aS'white wine vinegar'
p4782
aS'Dijon mustard'
p4783
aS'vegetable oil'
p4784
aS'white crab meat'
p4785
aS'mackerel fillets, skin on'
p4786
aS'chopped fresh wood sorrel'
p4787
aS'salt and freshly ground black pepper'
p4788
atp4789
tp4790
Rp4791
sS'Winter vegetable crepes with fondue sauce'
p4792
g2
(g3
g4
(S'http://www.bbc.co.uk/food/recipes/winter_vegetable_crpes_89686'
p4793
S'The Hairy Bikers'
p4794
(lp4795
S'olive oil'
p4796
aS'knob of butter'
p4797
aS'butternut squash, peeled, seeds removed'
p4798
aS'garlic clove'
p4799
aS'rainbow chard'
p4800
aS'cavolo nero, tough stalks removed'
p4801
aS'pine nuts'
p4802
aS'lemon'
p4803
aS'cayenne pepper'
p4804
aS'salt and freshly ground black pepper'
p4805
aS'plain flour'
p4806
aS'salt'
p4807
aS'large free-range eggs'
p4808
aS'milk'
p4809
aS'large knob of butter'
p4810
aS'pint milk'
p4811
aS'plain flour'
p4812
aS'butter'
p4813
aS'Gruyere'
p4814
aS'Emmental'
p4815
aS'freshly grated nutmeg'
p4816
aS'cayenne pepper'
p4817
atp4818
tp4819
Rp4820
sS'Parsnip and vanilla soup, saffron-poached quince, pan-fried scallops and tarragon crisps'
p4821
g2
(g3
g4
(S'http://www.bbc.co.uk/food/recipes/parsnip_and_vanilla_soup_24197'
p4822
S'Will Holland'
p4823
(lp4824
S'butter'
p4825
aS'onion'
p4826
aS'garlic large cloves)'
p4827
aS'parsnips (peeled weight)'
p4828
aS'vanilla pod'
p4829
aS'full-fat milk'
p4830
aS'chicken or vegetable stock'
p4831
aS'salt'
p4832
aS'lemon'
p4833
aS'cold water'
p4834
aS'quince'
p4835
aS'caster sugar'
p4836
aS'water'
p4837
aS'large saffron strands'
p4838
aS'hand-dived scallops, cleaned'
p4839
aS'salt'
p4840
aS'light olive oil'
p4841
aS'butter'
p4842
aS'lemon'
p4843
aS'groundnut oil'
p4844
aS'fresh tarragon'
p4845
aS'salt'
p4846
atp4847
tp4848
Rp4849
sS'Grilled mackerel with gooseberry sauce, new potatoes and salad leaves'
p4850
g2
(g3
g4
(S'http://www.bbc.co.uk/food/recipes/panfriedmackerelwith_84849'
p4851
S'James Martin'
p4852
(lp4853
S'butter'
p4854
aS'gooseberries'
p4855
aS'double cream'
p4856
aS'caster sugar'
p4857
aS'salt and freshly ground black pepper'
p4858
aS'mackerel, filleted, skin on'
p4859
aS'wholegrain mustard'
p4860
aS'olive oil'
p4861
aS'salt and freshly ground black pepper'
p4862
aS'new potatoes'
p4863
aS'extra virgin olive oil'
p4864
aS'salt and freshly ground black pepper'
p4865
aS'bag salad leaves'
p4866
aS'extra virgin olive oil'
p4867
aS'salt and freshly ground black pepper'
p4868
atp4869
tp4870
Rp4871
sS'Vegetable and herb soup'
p4872
g2
(g3
g4
(S'http://www.bbc.co.uk/food/recipes/vegetableandherbsoup_86605'
p4873
S'Michael Caines'
p4874
(lp4875
S'unsalted butter'
p4876
aS'shallots'
p4877
aS'leeks'
p4878
aS'celeriac'
p4879
aS'carrots'
p4880
aS'salt'
p4881
aS'white wine'
p4882
aS'water'
p4883
aS'chicken stock (vegetarians may substitute with vegetable stock)'
p4884
aS'courgette'
p4885
aS'French beans'
p4886
aS'fresh peas'
p4887
aS'Savoy cabbage'
p4888
aS'double cream'
p4889
aS'tomatoes, blanched, skins and seeds removed'
p4890
aS'fresh basil leaves'
p4891
aS'chopped fresh sorrel'
p4892
aS'chopped fresh chervil'
p4893
aS'chopped fresh chives'
p4894
aS'caster sugar'
p4895
atp4896
tp4897
Rp4898
sS'Slow roast leg of lamb with chardonnay, rosemary, sage and bay'
p4899
g2
(g3
g4
(S'http://www.bbc.co.uk/food/recipes/slow_roast_leg_of_lamb_85170'
p4900
S'Lorraine Pascale'
p4901
(lp4902
S'leg of lamb (the thick fillet end) with bone in (about'
p4903
aS'salt and pepper'
p4904
aS'red onions'
p4905
aS'garlic cloves'
p4906
aS'rosemary sprigs'
p4907
aS'sage leaves'
p4908
aS'bay leaves'
p4909
aS'white wine'
p4910
aS'couple squidges of honey'
p4911
aS'potatoes'
p4912
aS'olive oil'
p4913
aS'frozen peas'
p4914
atp4915
tp4916
Rp4917
sS'Marinated beetroot'
p4918
g2
(g3
g4
(S'http://www.bbc.co.uk/food/recipes/marinatedbeetroot_67843'
p4919
S'Gennaro Contaldo'
p4920
(lp4921
S'raw beetroot'
p4922
aS'white or red wine vinegar'
p4923
aS'pints water'
p4924
aS'of salt'
p4925
aS'garlic cloves'
p4926
aS'dried oregano'
p4927
aS'red chilli'
p4928
aS'olive oil'
p4929
atp4930
tp4931
Rp4932
sS'Bramley apple and blackberry souffle'
p4933
g2
(g3
g4
(S'http://www.bbc.co.uk/food/recipes/bramley_apple_and_81186'
p4934
S'Michel Roux Jr.'
p4935
(lp4936
S'frozen blackberries'
p4937
aS'caster sugar'
p4938
aS'Bramley apples, peeled'
p4939
aS'caster sugar'
p4940
aS'squeeze of lemon juice'
p4941
aS'ground cinnamon'
p4942
aS'nutmeg'
p4943
aS'softened butter'
p4944
aS'caster sugar'
p4945
aS'milk'
p4946
aS'vanilla pod'
p4947
aS'medium free-range eggs'
p4948
aS'plain flour'
p4949
aS'biscuits, such as gingernuts'
p4950
atp4951
tp4952
Rp4953
sS'Grilled mackerel with soy lime dressing'
p4954
g2
(g3
g4
(S'http://www.bbc.co.uk/food/recipes/filletofmackerelwith_93673'
p4955
S'Raymond Blanc'
p4956
(lp4957
S'cider vinegar'
p4958
aS'water'
p4959
aS'pieces coriander stalks'
p4960
aS'caster sugar'
p4961
aS'red onion'
p4962
aS'whole pink peppercorns'
p4963
aS'lemon slices'
p4964
aS'whole mackerel, filleted'
p4965
aS'oil'
p4966
aS'soy sauce'
p4967
aS'water'
p4968
aS'lime'
p4969
aS'fresh root ginger, peeled'
p4970
aS'dark muscovado sugar'
p4971
aS'fennel seeds, soaked in water for hours'
p4972
aS'fennel bulb, finely sliced on a mandoline, slices soaked in ice-cold water for minutes'
p4973
aS'olive oil'
p4974
aS'lime'
p4975
aS'rocket leaves'
p4976
aS'pinches sea salt'
p4977
aS'cayenne pepper'
p4978
atp4979
tp4980
Rp4981
sS'Potato salad'
p4982
g2
(g3
g4
(S'http://www.bbc.co.uk/food/recipes/potatosalad_67592'
p4983
S"Jo' Pratt"
p4984
(lp4985
S'walnut pieces (optional)'
p4986
aS'tarragon or cider vinegar'
p4987
aS'Dijon mustard'
p4988
aS'olive oil'
p4989
aS'walnut oil'
p4990
aS'honey'
p4991
aS'flaked sea salt and freshly ground black pepper'
p4992
aS'new potatoes, such as Jersey Royals or Charlotte'
p4993
aS'chopped fresh tarragon leaves'
p4994
aS'large shallot'
p4995
aS'chopped cornichons or gherkins (optional)'
p4996
atp4997
tp4998
Rp4999
sS'How to make marmalade'
p5000
g2
(g3
g4
(S'http://www.bbc.co.uk/food/recipes/how_to_make_marmalade_20072'
p5001
S'Thane Prince'
p5002
(lp5003
S'Seville oranges'
p5004
aS'granulated sugar'
p5005
atp5006
tp5007
Rp5008
sS'Pan-fried grey mullet with stir-fried mangetout and shiitake mushrooms with lemongrass sauce'
p5009
g2
(g3
g4
(S'http://www.bbc.co.uk/food/recipes/panfriedgreymulletwi_88172'
p5010
S'Michael Caines'
p5011
(lp5012
S'x grey mullet fillets'
p5013
aS'salt and freshly ground pepper'
p5014
aS'olive oil'
p5015
aS'lime'
p5016
aS'sesame oil'
p5017
aS'beansprouts'
p5018
aS'shiitake mushrooms'
p5019
aS'mangetout'
p5020
aS'toasted sesame seeds'
p5021
aS'unsalted butter'
p5022
aS'shallots'
p5023
aS'lemongrass'
p5024
aS'salt'
p5025
aS'button mushrooms'
p5026
aS'sprigs lemon thyme'
p5027
aS'fish stock'
p5028
aS'dry white wine'
p5029
aS'double cream'
p5030
aS'salt and freshly ground pepper'
p5031
atp5032
tp5033
Rp5034
sS'Parsley, tomato and bulgar wheat salad'
p5035
g2
(g3
g4
(S'http://www.bbc.co.uk/food/recipes/parsleytomatoandburg_73147'
p5036
S'Anissa Helou'
p5037
(lp5038
S'fine bulgar wheat'
p5039
aS'firm ripe tomatoes, diced into small cubes'
p5040
aS'spring onions'
p5041
aS'flatleaf parsley, (about on the stalk)'
p5042
aS'small mint, (about on the stalk), leaves only'
p5043
aS'ground cinnamon'
p5044
aS'ground allspice'
p5045
aS'finely ground black pepper'
p5046
aS'salt'
p5047
aS'lemon'
p5048
aS'extra virgin olive oil'
p5049
aS'Little Gem lettuces, washed and quartered (or fresh tender vine leaves or white cabbage leaves'
p5050
atp5051
tp5052
Rp5053
sS'How to dress a crab'
p5054
g2
(g3
g4
(S'http://www.bbc.co.uk/food/recipes/dressedcrab_90206'
p5055
S'Mitch Tonks'
p5056
(lp5057
S'large cooked crab'
p5058
aS'slices of brown bread'
p5059
aS'good-quality mayonnaise'
p5060
aS'lemon wedges'
p5061
aS'fresh parsley'
p5062
atp5063
tp5064
Rp5065
sS'Raspberry and marshmallow swiss roll'
p5066
g2
(g3
g4
(S'http://www.bbc.co.uk/food/recipes/raspberryandmarshmal_87490'
p5067
S'Simon Rimmer'
p5068
(lp5069
S'free-range eggs'
p5070
aS'golden caster sugar'
p5071
aS'self-raising flour'
p5072
aS'butter'
p5073
aS'raspberry jam'
p5074
aS'double cream'
p5075
aS'pink marshmallows'
p5076
aS'raspberries'
p5077
aS'icing sugar'
p5078
atp5079
tp5080
Rp5081
sS'Grilled mackerel fillets with yoghurt kadhi and curry leaf spinach poriyal'
p5082
g2
(g3
g4
(S'http://www.bbc.co.uk/food/recipes/grilledmackerelfille_89359'
p5083
S'Vivek Singh'
p5084
(lp5085
S'full fat plain yoghurt'
p5086
aS'chickpea flour (also called besan)'
p5087
aS'water'
p5088
aS'salt'
p5089
aS'ground turmeric'
p5090
aS'ghee'
p5091
aS'whole red chilli'
p5092
aS'cumin seeds'
p5093
aS'fresh curry leaves'
p5094
aS'cloves'
p5095
aS'fennel seeds'
p5096
aS'pepper'
p5097
aS'cinnamon stick'
p5098
aS'cumin seeds'
p5099
aS'red chilli powder'
p5100
aS'large mackerel fillets, bones picked out with tweezers'
p5101
aS'salt'
p5102
aS'lemon'
p5103
aS'vegetable oil'
p5104
aS'vegetable oil'
p5105
aS'mustard seeds'
p5106
aS'fresh curry leaves'
p5107
aS'onion'
p5108
aS'salt'
p5109
aS'fresh green chilli'
p5110
aS'spinach'
p5111
aS'fresh coconut'
p5112
atp5113
tp5114
Rp5115
sS'Vegetable shepherds pie'
p5116
g2
(g3
g4
(S'http://www.bbc.co.uk/food/recipes/vegetarian_shepherds_pie_73637'
p5117
S'Lorraine Pascale'
p5118
(lp5119
S'oil'
p5120
aS'leek, trimmed'
p5121
aS'carrots'
p5122
aS'chestnut mushrooms'
p5123
aS'large garlic clove'
p5124
aS'fresh sage leaves'
p5125
aS'sprigs fresh thyme, leaves only'
p5126
aS'x tin green or Puy lentils'
p5127
aS'x tin chopped tomatoes'
p5128
aS'vegetable stock'
p5129
aS'red wine'
p5130
aS'Worcestershire sauce'
p5131
aS'soy sauce'
p5132
aS'chilli flakes (optional)'
p5133
aS'caster sugar (optional)'
p5134
aS'salt and freshly ground black pepper'
p5135
aS'sweet potatoes (about in total)'
p5136
aS'floury potatoes (about in total)'
p5137
aS'small cauliflower, leaves and root removed'
p5138
aS'knob of unsalted butter'
p5139
aS'salt and freshly ground black pepper'
p5140
aS'finely grated parmesan (optional)'
p5141
atp5142
tp5143
Rp5144
sS'Grilled mackerel and mackerel tartare with shallot rings, croutons and coriander cress'
p5145
g2
(g3
g4
(S'http://www.bbc.co.uk/food/recipes/grilled_mackerel_and_54030'
p5146
S'James Martin'
p5147
(lp5148
S'mackerel fillets, skinned, pin-boned and finely diced'
p5149
aS'shallot'
p5150
aS'lemon'
p5151
aS'finely chopped fresh chives'
p5152
aS'baby capers, drained'
p5153
aS'creme fraiche'
p5154
aS'rice wine vinegar'
p5155
aS'caster sugar'
p5156
aS'banana shallots'
p5157
aS'finely chopped celery'
p5158
aS'radishes'
p5159
aS'salt'
p5160
aS'finely chopped celery leaves'
p5161
aS'olive oil'
p5162
aS'baguette'
p5163
aS'coriander cress'
p5164
atp5165
tp5166
Rp5167
sS'Bramley apple slice'
p5168
g2
(g3
g4
(S'http://www.bbc.co.uk/food/recipes/bramley_apple_slice_66887'
p5169
S'James Martin'
p5170
(lp5171
S'Bramley apples, peeled'
p5172
aS'caster sugar'
p5173
aS'butter'
p5174
aS'x ready-made all-butter puff pastry sheets (about x x'
p5175
aS'natural (uncoloured) marzipan'
p5176
aS'free-range egg yolks'
p5177
aS'demerara sugar'
p5178
aS'clotted cream'
p5179
aS'Bramley apples, peeled'
p5180
aS'caster sugar'
p5181
aS'butter'
p5182
aS'x ready-made all-butter puff pastry sheets (about x x'
p5183
aS'natural (uncoloured) marzipan'
p5184
aS'free-range egg yolks'
p5185
aS'demerara sugar'
p5186
aS'clotted cream'
p5187
atp5188
tp5189
Rp5190
sS'Pasta con sarde'
p5191
g2
(g3
g4
(S'http://www.bbc.co.uk/food/recipes/pastaconsarde_91609'
p5192
S'Arthur Potts Dawson'
p5193
(lp5194
S'extra virgin olive oil'
p5195
aS'large bulb fennel, trimmed, finely sliced'
p5196
aS'small onions'
p5197
aS'heaped fennel seeds'
p5198
aS'small fresh red chillies'
p5199
aS'sardines, scaled'
p5200
aS'raisins'
p5201
aS'pine nuts'
p5202
aS'white wine'
p5203
aS'water'
p5204
aS'salt and freshly ground black pepper'
p5205
aS'dried linguine'
p5206
aS'lemons'
p5207
atp5208
tp5209
Rp5210
sS'Minestrone with butternut squash noodles'
p5211
g2
(g3
g4
(S'http://www.bbc.co.uk/food/recipes/minestrone_with_35108'
p5212
S'Hemsley + Hemsley'
p5213
(lp5214
S'ghee'
p5215
aS'large onions'
p5216
aS'celery stick, trimmed'
p5217
aS'bay leaf'
p5218
aS'butternut squash, trimmed, peeled'
p5219
aS'garlic cloves'
p5220
aS'large carrot'
p5221
aS'dried oregano'
p5222
aS'dried basil'
p5223
aS'chilli flakes or chopped fresh chilli'
p5224
aS'pints vegetable stock'
p5225
aS'tin chopped tomatoes (or large fresh tomatoes'
p5226
aS'x tins cooked chickpeas, drained'
p5227
aS'cavolo nero, tough stalks removed'
p5228
aS'salt and freshly ground black pepper'
p5229
aS'large grated parmesan (or vegetarian alternative)'
p5230
aS'drizzle extra virgin olive oil'
p5231
atp5232
tp5233
Rp5234
sS'Damson cobbler'
p5235
g2
(g3
g4
(S'http://www.bbc.co.uk/food/recipes/damsoncobbler_70309'
p5236
S'Rick Stein'
p5237
(lp5238
S'damsons'
p5239
aS'caster sugar'
p5240
aS'self-raising flour'
p5241
aS'baking powder'
p5242
aS'chilled butter'
p5243
aS'caster sugar'
p5244
aS'a of salt'
p5245
aS'medium egg'
p5246
aS'buttermilk'
p5247
aS'flaked almonds'
p5248
atp5249
tp5250
Rp5251
sS'Summer pudding'
p5252
g2
(g3
g4
(S'http://www.bbc.co.uk/food/recipes/summerpudding_90295'
p5253
S'Sophie Grigson'
p5254
(lp5255
S'mixed summer fruit (such as raspberries, red, white and blackcurrants, tayberries, loganberries, blackberries'
p5256
aS'caster sugar'
p5257
aS'medium loaf good-quality white bread'
p5258
aS'cassis or blackcurrant cordial'
p5259
atp5260
tp5261
Rp5262
sS'Pomegranate crush'
p5263
g2
(g3
g4
(S'http://www.bbc.co.uk/food/recipes/_pomegranate_crush_52049'
p5264
S'Wayne Collins'
p5265
(lp5266
S'fresh pomegranate seeds'
p5267
aS'clementine juice'
p5268
aS'vanilla vodka'
p5269
aS'pomegranate juice'
p5270
aS'fresh mint'
p5271
atp5272
tp5273
Rp5274
sS'Steamed fillets of sea bass in green jackets with leek coulis with saffron and dill'
p5275
g2
(g3
g4
(S'http://www.bbc.co.uk/food/recipes/steamedfilletsofseab_91222'
p5276
S'Michel Roux'
p5277
(lp5278
S'x portions sea bass'
p5279
aS'salt and freshly ground black pepper'
p5280
aS'large dark green spinach or lettuce leaves, blanched for seconds in a pan of boiling water and refreshed in ice water'
p5281
aS'clarified butter'
p5282
aS'leeks, white part only'
p5283
aS'young leeks'
p5284
aS'butter'
p5285
aS'chicken stock or vegetable stock'
p5286
aS'small saffron strands'
p5287
aS'double cream'
p5288
aS'salt and freshly ground black pepper'
p5289
aS'chopped dill'
p5290
atp5291
tp5292
Rp5293
sS'Rump steak teriyaki with a salad of mooli, pea shoots and mustard'
p5294
g2
(g3
g4
(S'http://www.bbc.co.uk/food/recipes/rumpsteakteriyakiwit_89360'
p5295
S'Paul Rankin'
p5296
(lp5297
S'x aged rump steaks'
p5298
aS'salt and freshly ground black pepper'
p5299
aS'mirin (available in Asian supermarkets)'
p5300
aS'Japanese soy sauce (you can substitute normal soy sauce)'
p5301
aS'sake'
p5302
aS'vegetable oil'
p5303
aS'small red onion, finely sliced'
p5304
aS'mooli (you may substitute ordinary radish)'
p5305
aS'red radishes'
p5306
aS'pea shoots (or watercress)'
p5307
aS'fresh peas'
p5308
aS'English mustard'
p5309
aS'wholegrain mustard'
p5310
aS'sugar'
p5311
aS'wine vinegar'
p5312
aS'rapeseed oil'
p5313
aS'water'
p5314
atp5315
tp5316
Rp5317
sS'Chicken and asparagus quiche'
p5318
g2
(g3
g4
(S'http://www.bbc.co.uk/food/recipes/chicken_and_asparagus_27353'
p5319
S'James Martin'
p5320
(lp5321
S'butter'
p5322
aS'flour'
p5323
aS'ready-made shortcrust pastry'
p5324
aS'free-range eggs'
p5325
aS'double cream'
p5326
aS'asparagus'
p5327
aS'cooked leftover roast chicken'
p5328
aS'chopped fresh marjoram'
p5329
aS'vintage Comte cheese'
p5330
aS'bag green salad leaves'
p5331
aS'salt and freshly ground black pepper'
p5332
atp5333
tp5334
Rp5335
sS'Quince paste (membrillo)'
p5336
g2
(g3
g4
(S'http://www.bbc.co.uk/food/recipes/quincepastemembrillo_85978'
p5337
S'Alex Kingston'
p5338
(lp5339
S'quinces, washed, peeled, cored'
p5340
aS'vanilla pod'
p5341
aS'caster sugar'
p5342
atp5343
tp5344
Rp5345
sS'Pan-fried loin of venison with butternut squash, roasted salsify, venison jus with dark chocolate and Brussels sprout salad'
p5346
g2
(g3
g4
(S'http://www.bbc.co.uk/food/recipes/pan-fried_loin_of_55675'
p5347
S'Daniel Galmiche'
p5348
(lp5349
S'thin slices pancetta'
p5350
aS'x venison loin, fully trimmed'
p5351
aS'olive oil'
p5352
aS'thyme'
p5353
aS'garlic clove'
p5354
aS'olive oil'
p5355
aS'venison trimmings (from above)'
p5356
aS'onion'
p5357
aS'carrot, peeled cut in half lengthways'
p5358
aS'juniper berry'
p5359
aS'stick celery'
p5360
aS'thyme'
p5361
aS'red wine'
p5362
aS'pints chicken stock'
p5363
aS'per cent dark chocolate'
p5364
aS'salt and freshly ground black pepper'
p5365
aS'butternut squash'
p5366
aS'olive oil'
p5367
aS'thyme'
p5368
aS'garlic clove, skin on'
p5369
aS'shallots'
p5370
aS'salsify roots, washed'
p5371
aS'full fat milk'
p5372
aS'butter'
p5373
aS'flatleaf parsley'
p5374
aS'garlic clove'
p5375
aS'wild mushrooms'
p5376
aS'Brussels sprouts, base removed, outer leaves and very centre leaves discarded'
p5377
atp5378
tp5379
Rp5380
sS'Quick canape crostini'
p5381
g2
(g3
g4
(S'http://www.bbc.co.uk/food/recipes/quick_canap_crostini_90320'
p5382
S'Lorraine Pascale'
p5383
(lp5384
S'baguette'
p5385
aS'extra virgin olive oil'
p5386
aS'garlic clove'
p5387
aS'large ripe tomatoes'
p5388
aS'extra virgin olive oil'
p5389
aS'small basil and mint leaves'
p5390
aS'sugar (optional)'
p5391
aS'salt and freshly ground black pepper'
p5392
aS'canned cannellini beans'
p5393
aS'slices prosciutto'
p5394
aS'small of wild rocket'
p5395
aS'rindless soft goats cheese'
p5396
aS'fresh figs'
p5397
aS'small of mint leaves'
p5398
aS'balsamic vinegar'
p5399
aS'honey'
p5400
atp5401
tp5402
Rp5403
sS'Slow roast shoulder of pork with roasties and apple sauce with hispi cabbage'
p5404
g2
(g3
g4
(S'http://www.bbc.co.uk/food/recipes/slow_roast_shoulder_of_13963'
p5405
S'James Martin'
p5406
(lp5407
S'boned shoulder of pork'
p5408
aS'olive oil'
p5409
aS'sea salt'
p5410
aS'sprigs thyme'
p5411
aS'duck fat'
p5412
aS'King Edward potatoes'
p5413
aS'Bramley apples'
p5414
aS'butter'
p5415
aS'caster sugar'
p5416
aS'hispi cabbage'
p5417
aS'salt and freshly ground black pepper'
p5418
atp5419
tp5420
Rp5421
sS'Swiss roll with homemade raspberry jam'
p5422
g2
(g3
g4
(S'http://www.bbc.co.uk/food/recipes/swiss_roll_with_homemade_90772'
p5423
S'James Martin'
p5424
(lp5425
S'fresh raspberries'
p5426
aS'jam sugar'
p5427
aS'free-range eggs'
p5428
aS'caster sugar'
p5429
aS'vanilla pods, split'
p5430
aS'self-raising flour'
p5431
aS'double cream'
p5432
aS'fresh raspberries'
p5433
aS'tiny sprigs fresh mint or lemon verbena'
p5434
aS'chopped pistachios'
p5435
aS'fresh raspberries'
p5436
aS'jam sugar'
p5437
aS'free-range eggs'
p5438
aS'caster sugar'
p5439
aS'vanilla pods, split'
p5440
aS'self-raising flour'
p5441
aS'double cream'
p5442
aS'fresh raspberries'
p5443
aS'tiny sprigs fresh mint or lemon verbena'
p5444
aS'chopped pistachios'
p5445
atp5446
tp5447
Rp5448
sS'Cockle cream with bacon, tomatoes and potatoes'
p5449
g2
(g3
g4
(S'http://www.bbc.co.uk/food/recipes/cocklecreamwithbacon_11640'
p5450
S'Rick Stein'
p5451
(lp5452
S'pint cleaned cockles'
p5453
aS'water'
p5454
aS'butter'
p5455
aS'lean bacon'
p5456
aS'leek'
p5457
aS'stick celery'
p5458
aS'plum tomatoes'
p5459
aS'potatoes (about'
p5460
aS'small lemon'
p5461
aS'eggs'
p5462
aS'fresh parsley'
p5463
aS'salt and freshly ground black pepper'
p5464
atp5465
tp5466
Rp5467
sS'Mulled wine'
p5468
g2
(g3
g4
(S'http://www.bbc.co.uk/food/recipes/mulled_wine_46955'
p5469
S'Mary Berry'
p5470
(lp5471
S'large orange'
p5472
aS'lemons'
p5473
aS'cloves'
p5474
aS'satsumas or clementines'
p5475
aS'x bottles red wine'
p5476
aS'cinnamon sticks'
p5477
aS'caster sugar (optional)'
p5478
aS'brandy'
p5479
atp5480
tp5481
Rp5482
sS'Stargazey pie'
p5483
g2
(g3
g4
(S'http://www.bbc.co.uk/food/recipes/stargazeypie_93663'
p5484
S'Tristan Welch'
p5485
(lp5486
S'white chicken stock'
p5487
aS'creme fraiche'
p5488
aS'English mustard'
p5489
aS'salt'
p5490
aS'mustard powder'
p5491
aS'squeeze lemon juice'
p5492
aS'piece streaky bacon'
p5493
aS'baby onions'
p5494
aS'all-butter puff pastry'
p5495
aS'free-range egg yolk'
p5496
aS'Cornish sardines, filleted'
p5497
aS'rapeseed oil'
p5498
aS'butter'
p5499
aS'white wine vinegar'
p5500
aS"quails' eggs"
p5501
atp5502
tp5503
Rp5504
sS'Stuffed marrow'
p5505
g2
(g3
g4
(S'http://www.bbc.co.uk/food/recipes/stuffed_marrow_43279'
p5506
S'Avis Davies'
p5507
(lp5508
S'medium marrow'
p5509
aS'garlic cloves'
p5510
aS'chopped fresh thyme'
p5511
aS'olive oil'
p5512
aS'large onions'
p5513
aS'beef mince'
p5514
aS'tomato puree'
p5515
aS'sun-dried tomato paste (or tbsp chopped sundried tomatoes)'
p5516
aS'fresh tomatoes (or x can chopped tomatoes)'
p5517
aS'finely chopped fresh parsley'
p5518
aS'free-range eggs'
p5519
aS'parmesan, grated'
p5520
aS'pecorino'
p5521
aS'salt and freshly ground black pepper'
p5522
atp5523
tp5524
Rp5525
sS'Kale and quinoa saute with orange tahini dressing'
p5526
g2
(g3
g4
(S'http://www.bbc.co.uk/food/recipes/kale_and_quinoa_saut_64469'
p5527
S'Hemsley + Hemsley'
p5528
(lp5529
S'quinoa'
p5530
aS'extra virgin olive oil'
p5531
aS'coconut oil'
p5532
aS'kale, tough stalks discarded, leaves shredded'
p5533
aS'fat garlic clove'
p5534
aS'large chopped fresh coriander or flatleaf parsley'
p5535
aS'unwaxed orange, zest only'
p5536
aS'sea salt'
p5537
aS'tahini'
p5538
aS'extra virgin olive oil'
p5539
aS'garlic clove'
p5540
aS'warm (boiled) water'
p5541
aS'orange juice'
p5542
aS'salt and freshly ground black pepper'
p5543
atp5544
tp5545
Rp5546
sS'Venison, chicken liver and Armagnac terrine'
p5547
g2
(g3
g4
(S'http://www.bbc.co.uk/food/recipes/venison_chicken_liver_34637'
p5548
S'James Martin'
p5549
(lp5550
S'venison fillet'
p5551
aS'chicken livers'
p5552
aS'rapeseed oil'
p5553
aS'unsalted butter'
p5554
aS'Armagnac'
p5555
aS'dry cured smoked streaky bacon'
p5556
aS'skinless boneless chicken breasts'
p5557
aS'double cream'
p5558
aS'toasted chopped hazelnuts'
p5559
aS'dried cranberries'
p5560
aS'chopped tarragon leaves'
p5561
aS'sea salt and freshly ground black pepper'
p5562
atp5563
tp5564
Rp5565
sS'Goats cheese and white peach salad with truffled mascarpone cream'
p5566
g2
(g3
g4
(S'http://www.bbc.co.uk/food/recipes/goats_cheese_and_white_91501'
p5567
S'Ed Baines'
p5568
(lp5569
S'cobnuts'
p5570
aS'breadcrumbs'
p5571
aS'x Crottin de Chavignol goats cheese'
p5572
aS'white peaches, halved'
p5573
aS'honey'
p5574
aS'few shavings fresh black truffle'
p5575
aS'mascarpone'
p5576
aS'frisee (curly endive)'
p5577
aS'red chard'
p5578
aS'alfalfa sprouts'
p5579
atp5580
tp5581
Rp5582
sS'Grilled lamb chops, wild garlic pesto and Jersey Royals'
p5583
g2
(g3
g4
(S'http://www.bbc.co.uk/food/recipes/grilled_lamb_chops_wild_41287'
p5584
S'Tom Kerridge'
p5585
(lp5586
S'wild garlic leaves'
p5587
aS'garlic clove'
p5588
aS'pine nuts'
p5589
aS'olive oil'
p5590
aS'lemon'
p5591
aS'parmesan cheese'
p5592
aS'salt and pepper'
p5593
aS'lamb cutlets'
p5594
aS'olive oil'
p5595
aS'pre-cooked Jersey Royals'
p5596
aS'wild garlic leaves'
p5597
atp5598
tp5599
Rp5600
sS'Oysters Kilpatrick and Rockefeller'
p5601
g2
(g3
g4
(S'http://www.bbc.co.uk/food/recipes/oysters_kilpatrick_and_96431'
p5602
S'None listed'
p5603
(lp5604
S'fresh oysters, shucked'
p5605
aS'shallot'
p5606
aS'pastis (aniseed liqueur)'
p5607
aS'double cream'
p5608
aS'large spinach'
p5609
aS'nutmeg, freshly grated'
p5610
aS'chopped parsley'
p5611
aS'free-range egg yolk'
p5612
aS'brioche crumbs'
p5613
aS'rashers streaky bacon, rind removed'
p5614
aS'Tabasco'
p5615
aS'Worcestershire sauce'
p5616
aS'butter'
p5617
atp5618
tp5619
Rp5620
sS'Spring minestrone soup with pesto'
p5621
g2
(g3
g4
(S'http://www.bbc.co.uk/food/recipes/springminestronesoup_74617'
p5622
S'Mary Berry'
p5623
(lp5624
S'olive oil'
p5625
aS'butter'
p5626
aS'large onions'
p5627
aS'leek'
p5628
aS'potatoes'
p5629
aS'sticks celery'
p5630
aS'savoy cabbage'
p5631
aS'pints beef or vegetable stock'
p5632
aS'can Italian chopped tomatoes'
p5633
aS'salt and freshly ground black pepper'
p5634
aS'green basil pesto'
p5635
atp5636
tp5637
Rp5638
sS'Little Bramley apple pies'
p5639
g2
(g3
g4
(S'http://www.bbc.co.uk/food/recipes/little_bramley_apple_47170'
p5640
S'Lorraine Pascale'
p5641
(lp5642
S'Bramley apples, peeled'
p5643
aS'soft light brown sugar'
p5644
aS'ground cinnamon'
p5645
aS'ground ginger'
p5646
aS'lemon'
p5647
aS'knob of butter'
p5648
aS'plain flour'
p5649
aS'puff pastry'
p5650
aS'medium free-range egg'
p5651
aS'icing sugar'
p5652
aS'softly whipped cream'
p5653
atp5654
tp5655
Rp5656
sS'Corn on the cob with burnt-onion ketchup'
p5657
g2
(g3
g4
(S'http://www.bbc.co.uk/food/recipes/corn_on_the_cob_with_88227'
p5658
S'Tom Kerridge'
p5659
(lp5660
S'vegetable oil'
p5661
aS'onions'
p5662
aS'bay leaves'
p5663
aS'white wine vinegar'
p5664
aS'Worcestershire sauce'
p5665
aS'garlic cloves'
p5666
aS'dark muscovado sugar'
p5667
aS'chopped salted anchovies'
p5668
aS'butter'
p5669
aS'smoked paprika'
p5670
aS'dried sage'
p5671
aS'dried chilli flakes'
p5672
aS'cracked black peppercorns'
p5673
aS'table salt'
p5674
aS'garlic powder'
p5675
aS'sweetcorn'
p5676
atp5677
tp5678
Rp5679
sS'Wheat tart (Pastiera di grano)'
p5680
g2
(g3
g4
(S'http://www.bbc.co.uk/food/recipes/wheattartpastieradig_91172'
p5681
S'Antonio Carluccio'
p5682
(lp5683
S'whole wheat, soaked for hours in several changes of water (or alternatively use canned cooked wheat, also called pastiera di grano'
p5684
aS'pint milk (if you are soaking the whole wheat)'
p5685
aS'lemon'
p5686
aS'ground cinnamon'
p5687
aS'vanilla sugar (make your own by adding a vanilla pod to a pot of sugar'
p5688
aS'orange'
p5689
aS'ricotta cheese'
p5690
aS'large free-range eggs'
p5691
aS'orange flower water (available from large supermarkets and specialist Middle Eastern delicatessens)'
p5692
aS'candied peel'
p5693
aS'caster sugar'
p5694
aS'butter'
p5695
aS'icing sugar'
p5696
aS'caster sugar'
p5697
aS'butter or lard'
p5698
aS'large free-range egg yolks'
p5699
aS'plain flour'
p5700
atp5701
tp5702
Rp5703
sS'Venison with blueberries'
p5704
g2
(g3
g4
(S'http://www.bbc.co.uk/food/recipes/venisonwithblueberri_86030'
p5705
S'Brenda Blethyn'
p5706
(lp5707
S'blueberries'
p5708
aS'white wine or sherry'
p5709
aS'sugar'
p5710
aS'balsamic vinegar'
p5711
aS'orange juice'
p5712
aS'salt and freshly ground black pepper'
p5713
aS'butter'
p5714
aS'knob butter'
p5715
aS'olive oil'
p5716
aS'venison steaks'
p5717
atp5718
tp5719
Rp5720
sS'Apple noodle tart with toasted almonds and ginger creme fraiche'
p5721
g2
(g3
g4
(S'http://www.bbc.co.uk/food/recipes/apple_noodle_tart_with_75363'
p5722
S'Hemsley + Hemsley'
p5723
(lp5724
S'ground almonds'
p5725
aS'salt'
p5726
aS'bicarbonate of soda'
p5727
aS'maple syrup'
p5728
aS'butter'
p5729
aS'free-range egg'
p5730
aS'eating apples'
p5731
aS'vanilla extract'
p5732
aS'raisins'
p5733
aS'ground cinnamon'
p5734
aS'maple syrup'
p5735
aS'cold butter'
p5736
aS'almond flakes'
p5737
aS'full-fat creme fraiche'
p5738
aS'piece fresh root ginger'
p5739
atp5740
tp5741
Rp5742
sS'Venison tartare with celeriac remoulade, chestnuts and juniper toast'
p5743
g2
(g3
g4
(S'http://www.bbc.co.uk/food/recipes/venison_tartare_with_19212'
p5744
S'Adam Byatt'
p5745
(lp5746
S'sourdough bread'
p5747
aS'drizzle olive oil'
p5748
aS'dried juniper berries'
p5749
aS'garlic clove'
p5750
aS'white wine vinegar'
p5751
aS'drops Tabasco'
p5752
aS'Dijon mustard'
p5753
aS'tomato ketchup'
p5754
aS'silver anchovy fillets (boquerones)'
p5755
aS'dried juniper berry'
p5756
aS'small celeriac'
p5757
aS'salt'
p5758
aS'creme fraiche'
p5759
aS'wholegrain mustard'
p5760
aS'venison loin, fat trimmed'
p5761
aS'large shallot'
p5762
aS'fresh flatleaf parsley'
p5763
aS'cornichons, drained'
p5764
aS'salt and freshly ground black pepper'
p5765
aS'quail egg yolks (reserve half of each shell to serve)'
p5766
aS'large fresh chestnuts, cooked'
p5767
atp5768
tp5769
Rp5770
sS'Jerusalem artichoke broth'
p5771
g2
(g3
g4
(S'http://www.bbc.co.uk/food/recipes/jerusalemartichokebr_85618'
p5772
S'Sophie Grigson'
p5773
(lp5774
S'large onion'
p5775
aS'Jerusalem artichokes, peeled'
p5776
aS'extra virgin olive oil'
p5777
aS'sprigs fresh thyme'
p5778
aS'bay leaf'
p5779
aS'pints hot chicken or vegetable stock'
p5780
aS'white wine vinegar'
p5781
aS'salt and freshly ground black pepper'
p5782
aS'roughly chopped parsley'
p5783
aS'thick slices baguette (optional)'
p5784
aS'single Gloucester, mature cheddar or gruyere cheese'
p5785
atp5786
tp5787
Rp5788
sS'Grey mullet with yoghurt potatoes'
p5789
g2
(g3
g4
(S'http://www.bbc.co.uk/food/recipes/greymulletwithyoghur_86927'
p5790
S'Simon Rimmer'
p5791
(lp5792
S'cumin seeds'
p5793
aS'natural yoghurt'
p5794
aS'water'
p5795
aS'ground turmeric'
p5796
aS'chilli powder'
p5797
aS'ground coriander'
p5798
aS'ground cumin'
p5799
aS'salt'
p5800
aS'dark brown sugar'
p5801
aS'green chillies'
p5802
aS'potatoes, par-boiled for four minutes, cooled, peeled'
p5803
aS'x grey mullet fillets'
p5804
aS'salt and freshly ground black pepper'
p5805
aS'vegetable oil'
p5806
aS'butter'
p5807
aS'fresh coriander leaves'
p5808
aS'lime wedges'
p5809
atp5810
tp5811
Rp5812
sS'Port-preserved cherries with cinnamon and orange'
p5813
g2
(g3
g4
(S'http://www.bbc.co.uk/food/recipes/port-preserved_cherries_53464'
p5814
S'Lorraine Pascale'
p5815
(lp5816
S'soft light brown sugar'
p5817
aS'port'
p5818
aS'cinnamon'
p5819
aS'orange'
p5820
aS'cherries'
p5821
atp5822
tp5823
Rp5824
sS'Rack of lamb with mushroom ravioli, cep puree and wild mushroom sauce'
p5825
g2
(g3
g4
(S'http://www.bbc.co.uk/food/recipes/rackoflambwithmushro_93222'
p5826
S'James Martin'
p5827
(lp5828
S'pasta flour'
p5829
aS'free-range eggs'
p5830
aS'butter'
p5831
aS'onion, peeled'
p5832
aS'fresh thyme sprigs'
p5833
aS'field mushrooms'
p5834
aS'salt and freshly ground black pepper'
p5835
aS'olive oil'
p5836
aS'butter'
p5837
aS'onion, peeled'
p5838
aS'garlic clove, peeled'
p5839
aS'dried ceps, soaked in hot water until softened'
p5840
aS'Salt and freshly ground black pepper'
p5841
aS'butter'
p5842
aS'fresh mixed wild mushrooms, cleaned'
p5843
aS'red wine'
p5844
aS'reduced beef stock'
p5845
aS'salt and freshly ground black pepper'
p5846
aS'x lamb racks, French trimmed'
p5847
aS'salt and freshly ground black pepper'
p5848
aS'butter'
p5849
aS'olive oil'
p5850
aS'sweet potato, peeled'
p5851
aS'fresh thyme'
p5852
atp5853
tp5854
Rp5855
sS'White chocolate and ginger cheesecake'
p5856
g2
(g3
g4
(S'http://www.bbc.co.uk/food/recipes/marys_white_chocolate_55940'
p5857
S'Mary Berry'
p5858
(lp5859
S'butter'
p5860
aS'plain chocolate'
p5861
aS'digestive biscuits'
p5862
aS'white chocolate buttons'
p5863
aS'full-fat cream cheese'
p5864
aS'soured cream'
p5865
aS'free-range eggs'
p5866
aS'vanilla extract'
p5867
aS'pieces stem ginger (from a jar)'
p5868
aS'plain chocolate'
p5869
aS'few drops red food colouring'
p5870
aS'marzipan'
p5871
aS'icing sugar'
p5872
aS'double cream'
p5873
atp5874
tp5875
Rp5876
sS'Confit duck with parsnip puree'
p5877
g2
(g3
g4
(S'http://www.bbc.co.uk/food/recipes/confit_duck_with_parsnip_41711'
p5878
S'John Torode'
p5879
(lp5880
S'cumin seeds'
p5881
aS'coriander seeds'
p5882
aS'juniper berries'
p5883
aS'clove garlic'
p5884
aS'sea salt flakes'
p5885
aS'duck legs'
p5886
aS'small fresh thyme'
p5887
aS'fresh rosemary'
p5888
aS'whole head garlic'
p5889
aS'I pints duck or goose fat'
p5890
aS'fresh bay leaves'
p5891
aS'whole black peppercorns'
p5892
aS'large parsnip, peeled'
p5893
aS'floury potato, peeled'
p5894
aS'apple, peeled, core removed'
p5895
aS'salt and white pepper'
p5896
aS'olive oil'
p5897
aS'milk'
p5898
aS'cobnuts, roasted'
p5899
atp5900
tp5901
Rp5902
sS'Wild garlic, roasted sweetbread and morel risotto'
p5903
g2
(g3
g4
(S'http://www.bbc.co.uk/food/recipes/wild_garlic_roasted_66193'
p5904
S'Jason Atherton'
p5905
(lp5906
S'knob of butter'
p5907
aS'shallots'
p5908
aS'carnaroli risotto rice'
p5909
aS'pints hot vegetable stock'
p5910
aS'finely chopped thyme'
p5911
aS'mascarpone'
p5912
aS'grated parmesan'
p5913
aS'cold butter'
p5914
aS'cabernet sauvignon vinegar'
p5915
aS'olive oil'
p5916
aS'button mushrooms'
p5917
aS'dried ceps (porcini mushrooms)'
p5918
aS'mushroom bouillon'
p5919
aS'pints veal stock'
p5920
aS'pints white chicken stock'
p5921
aS'morel mushrooms'
p5922
aS'minced shallot'
p5923
aS'white wine'
p5924
aS'chicken stock'
p5925
aS'wild garlic'
p5926
aS'parmesan shavings'
p5927
aS'wild rocket'
p5928
aS'calves or sheeps sweetbreads'
p5929
aS'salt and pepper'
p5930
aS'olive oil'
p5931
aS'knob of butter'
p5932
atp5933
tp5934
Rp5935
sS'Blackberry meringue parfait'
p5936
g2
(g3
g4
(S'http://www.bbc.co.uk/food/recipes/blackberrymeringuepa_93398'
p5937
S'James Martin'
p5938
(lp5939
S'free-range egg whites'
p5940
aS'caster sugar'
p5941
aS'cornflour'
p5942
aS'white wine vinegar'
p5943
aS'blackberries'
p5944
aS'ready-made vanilla custard'
p5945
aS'lemon'
p5946
aS'double cream'
p5947
aS'free-range egg whites'
p5948
aS'caster sugar'
p5949
aS'caster sugar'
p5950
aS'cold water'
p5951
aS'free-range egg whites'
p5952
aS'lemon juice'
p5953
aS'butter'
p5954
aS'blackberries'
p5955
aS'blackberry liqueur'
p5956
atp5957
tp5958
Rp5959
sS'Horseradish mash'
p5960
g2
(g3
g4
(S'http://www.bbc.co.uk/food/recipes/horseradishmash_13800'
p5961
S'Hugh Fearnley-Whittingstall'
p5962
(lp5963
S'potatoes'
p5964
aS'salt'
p5965
aS'butter'
p5966
aS'milk'
p5967
aS'freshly grated horseradish root'
p5968
atp5969
tp5970
Rp5971
sS'Boiled lemon and artichoke salad'
p5972
g2
(g3
g4
(S'http://www.bbc.co.uk/food/recipes/boiledlemonandartich_84656'
p5973
S'Rose Gray and Ruth Rogers'
p5974
(lp5975
S'thick-skinned lemons'
p5976
aS'sea salt'
p5977
aS'globe artichokes'
p5978
aS'blanched almonds'
p5979
aS'finely chopped fresh thyme'
p5980
aS'honey'
p5981
aS'lemon'
p5982
aS'extra virgin olive oil'
p5983
atp5984
tp5985
Rp5986
sS'Grilled fruit with mascarpone'
p5987
g2
(g3
g4
(S'http://www.bbc.co.uk/food/recipes/grilledfruitwithmasc_72274'
p5988
S'Antony Worrall Thompson'
p5989
(lp5990
S'ripe plums'
p5991
aS'packet meringues'
p5992
aS'tub mascarpone cheese'
p5993
aS'caster sugar'
p5994
atp5995
tp5996
Rp5997
sS"Bulgur wheat salad with beetroot, honey and goats' cheese"
p5998
g2
(g3
g4
(S'http://www.bbc.co.uk/food/recipes/bulgur_wheat_salad_with_65322'
p5999
S'Justine Pattison'
p6000
(lp6001
S'large parsnip'
p6002
aS'carrots'
p6003
aS'olive oil'
p6004
aS'bulgur wheat'
p6005
aS'clear honey'
p6006
aS'dried chilli flakes'
p6007
aS'lemon'
p6008
aS'chopped fresh flatleaf parsley'
p6009
aS'vacuum-packed cooked beetroot, drained'
p6010
aS"soft goats' cheese"
p6011
aS'salt and freshly ground black pepper'
p6012
aS'warm flatbreads'
p6013
atp6014
tp6015
Rp6016
sS'Hazelnut butter grilled scallops with salad'
p6017
g2
(g3
g4
(S'http://www.bbc.co.uk/food/recipes/hazelnutbuttergrille_89237'
p6018
S'James Martin'
p6019
(lp6020
S'olive oil'
p6021
aS'shallot, peeled'
p6022
aS'butter'
p6023
aS'lemon'
p6024
aS'finely chopped fresh chervil'
p6025
aS'finely chopped fresh chives'
p6026
aS'hazelnuts'
p6027
aS'salt and freshly ground black pepper'
p6028
aS'scallops'
p6029
aS'wholegrain mustard'
p6030
aS'good quality white wine vinegar'
p6031
aS'good quality rapeseed oil'
p6032
aS'Little Gem lettuce'
p6033
aS'punnet pea shoots'
p6034
atp6035
tp6036
Rp6037
sS'Raspberry marshmallows'
p6038
g2
(g3
g4
(S'http://www.bbc.co.uk/food/recipes/raspberrymarshmallow_86118'
p6039
S'James Martin'
p6040
(lp6041
S'granulated sugar'
p6042
aS'liquid glucose (available from some chemists and specialist cook shops)'
p6043
aS'water'
p6044
aS'large free-range egg whites'
p6045
aS'sheets gelatine (about'
p6046
aS'vanilla extract'
p6047
aS'icing sugar'
p6048
aS'cornflour'
p6049
aS'fresh raspberries'
p6050
aS'white chocolate, melted'
p6051
atp6052
tp6053
Rp6054
sS'Mexican sweetcorn pancakes, poached eggs and salsa'
p6055
g2
(g3
g4
(S'http://www.bbc.co.uk/food/recipes/mexicansweetcornpanc_89498'
p6056
S'James Tanner'
p6057
(lp6058
S'plain flour'
p6059
aS'baking powder'
p6060
aS'free-range egg'
p6061
aS'whole milk'
p6062
aS'salt and freshly ground black pepper'
p6063
aS'corn on the cob'
p6064
aS'vegetable oil'
p6065
aS'tomatoes, skin and seeds removed'
p6066
aS'coriander sprigs, leaves only'
p6067
aS'green chilli'
p6068
aS'sugar'
p6069
aS'small red onion'
p6070
aS'lime'
p6071
aS'sea salt'
p6072
aS'freshly ground black pepper'
p6073
aS'white wine vinegar'
p6074
aS'free-range eggs'
p6075
atp6076
tp6077
Rp6078
sS'Rhubarb vodka'
p6079
g2
(g3
g4
(S'http://www.bbc.co.uk/food/recipes/rhubarbvodka_65975'
p6080
S'None listed'
p6081
(lp6082
S'pints vodka'
p6083
aS'rhubarb sticks'
p6084
aS'lemon'
p6085
aS'cloves'
p6086
aS'cinnamon stick'
p6087
aS'sugar'
p6088
atp6089
tp6090
Rp6091
sS'Braised beef short ribs with salsify and bashed neeps'
p6092
g2
(g3
g4
(S'http://www.bbc.co.uk/food/recipes/braisedbeefshortribs_85339'
p6093
S'Mark Hix'
p6094
(lp6095
S'beef short ribs'
p6096
aS'salt and freshly ground black pepper'
p6097
aS'flour'
p6098
aS'onions, peeled'
p6099
aS'celery sticks'
p6100
aS'carrot, peeled'
p6101
aS'tomato puree'
p6102
aS'Innis and Gunn beer'
p6103
aS'pints beef stock'
p6104
aS'bay leaf'
p6105
aS'few sprigs fresh thyme'
p6106
aS'garlic cloves, peeled'
p6107
aS'black peppercorns'
p6108
aS'salsify sticks, peeled'
p6109
aS'salt and freshly ground black pepper'
p6110
aS'butter'
p6111
aS'chopped fresh parsley'
p6112
aS'turnips or swede, peeled'
p6113
aS'butter'
p6114
aS'salt and freshly ground black pepper'
p6115
atp6116
tp6117
Rp6118
sS'Medium-cut Seville orange marmalade'
p6119
g2
(g3
g4
(S'http://www.bbc.co.uk/food/recipes/medium-cut_seville_70291'
p6120
S'Dan Lepard'
p6121
(lp6122
S'Seville oranges'
p6123
aS'lemon juice'
p6124
aS'white sugar: regular'
p6125
aS'soft dark brown sugar'
p6126
atp6127
tp6128
Rp6129
sS'Sweetcorn relish'
p6130
g2
(g3
g4
(S'http://www.bbc.co.uk/food/recipes/sweetcorn_relish_14809'
p6131
S'Alex Lomax and Ed Bond'
p6132
(lp6133
S'oil'
p6134
aS'onion'
p6135
aS'garlic clove'
p6136
aS'grated ginger'
p6137
aS'chillies'
p6138
aS'red pepper'
p6139
aS'green pepper'
p6140
aS'cobs of sweetcorns'
p6141
aS'large tomato, seeds removed'
p6142
aS'dark brown sugar'
p6143
aS'cider vinegar'
p6144
aS'salt'
p6145
aS'pepper'
p6146
aS'chopped coriander'
p6147
atp6148
tp6149
Rp6150
sS'Raymond Blancs light shellfish chowder'
p6151
g2
(g3
g4
(S'http://www.bbc.co.uk/food/recipes/raymond_blancs_light_58868'
p6152
S'Raymond Blanc'
p6153
(lp6154
S'dry white wine'
p6155
aS'clams'
p6156
aS'mussels'
p6157
aS'unsalted butter'
p6158
aS'onion'
p6159
aS'garlic clove'
p6160
aS'bay leaf'
p6161
aS'whipping cream or double cream'
p6162
aS'wakame (edible seaweed, available from specialist Japanese stores and some larger supermarkets)'
p6163
aS'finely grated root ginger'
p6164
aS'finely grated nutmeg'
p6165
aS'lemon juice'
p6166
aS'salt and freshly ground black pepper'
p6167
aS'chopped fresh parsley leaves'
p6168
aS'baguette'
p6169
atp6170
tp6171
Rp6172
sS'Lamb, beetroot and bulgur wheat patties'
p6173
g2
(g3
g4
(S'http://www.bbc.co.uk/food/recipes/lamb_beetroot_and_bulgur_03270'
p6174
S'Nigel Slater'
p6175
(lp6176
S'fine or medium cracked wheat'
p6177
aS'raw beetroot'
p6178
aS'a small to medium onion'
p6179
aS'minced lamb'
p6180
aS'large garlic cloves, or even'
p6181
aS'heaped chopped dill'
p6182
aS'a small parsley'
p6183
aS'salt and black pepper'
p6184
aS'a little groundnut oil'
p6185
aS'about a third of a medium cucumber'
p6186
aS'salt and black pepper'
p6187
aS'the leaves from or mint sprigs'
p6188
aS'plain yoghurt'
p6189
atp6190
tp6191
Rp6192
sS'Jacobite blazer'
p6193
g2
(g3
g4
(S'http://www.bbc.co.uk/food/recipes/jacobite_blazer_42916'
p6194
S'Wayne Collins'
p6195
(lp6196
S'whisky'
p6197
aS'orange liqueur'
p6198
aS'honey syrup'
p6199
aS'dashes whisky bitters'
p6200
aS'fresh blackberries'
p6201
aS'fresh raspberries'
p6202
aS'strip orange zest'
p6203
atp6204
tp6205
Rp6206
sS"Mary Berry's sage and onion stuffing balls"
p6207
g2
(g3
g4
(S'http://www.bbc.co.uk/food/recipes/sage_and_onion_stuffing_09013'
p6208
S'Mary Berry'
p6209
(lp6210
S'butter'
p6211
aS'large onion'
p6212
aS'pork sausage meat'
p6213
aS'fresh white breadcrumbs'
p6214
aS'large lemon'
p6215
aS'chopped fresh parsley'
p6216
aS'chopped fresh sage'
p6217
aS'salt and freshly ground black pepper'
p6218
aS'vegetable oil'
p6219
atp6220
tp6221
Rp6222
sS'How to cook mussels'
p6223
g2
(g3
g4
(S'http://www.bbc.co.uk/food/recipes/musselswithwineandpa_90229'
p6224
S'Mitch Tonks'
p6225
(lp6226
S'mussels'
p6227
aS'drizzle olive oil'
p6228
aS'shallot'
p6229
aS'garlic cloves'
p6230
aS'dry white wine'
p6231
aS'of fresh parsley'
p6232
aS'crusty bread'
p6233
atp6234
tp6235
Rp6236
sS'Mutton chops with potato and turnip gratin'
p6237
g2
(g3
g4
(S'http://www.bbc.co.uk/food/recipes/mutton_chops_with_potato_75289'
p6238
S'Tom Kerridge'
p6239
(lp6240
S'plain flour'
p6241
aS'free-range eggs'
p6242
aS'Japanese panko breadcrumbs'
p6243
aS'mutton chops, French-trimmed (ask your butcher to do this for you'
p6244
aS'vegetable oil'
p6245
aS'knob of unsalted butter'
p6246
aS'squeeze lemon juice'
p6247
aS'sea salt flakes'
p6248
aS'onions'
p6249
aS'pointed cabbage (such as hispi cabbage), root removed'
p6250
aS'double cream'
p6251
aS'floury potatoes, such as Maris Piper, peeled'
p6252
aS'large turnips'
p6253
aS'garlic cloves'
p6254
aS'duck egg'
p6255
aS'Dijon mustard'
p6256
aS'red wine vinegar'
p6257
aS'salt'
p6258
aS'sugar'
p6259
aS'English mustard powder'
p6260
aS'smoked paprika'
p6261
aS'olive oil'
p6262
aS'chopped cornichons'
p6263
aS'fine capers'
p6264
aS'chopped fresh flatleaf parsley'
p6265
aS'salt and freshly ground white pepper'
p6266
atp6267
tp6268
Rp6269
sS'Venison pie with red onion marmalade'
p6270
g2
(g3
g4
(S'http://www.bbc.co.uk/food/recipes/venisonpiewithredoni_89186'
p6271
S'James Martin'
p6272
(lp6273
S'plain flour'
p6274
aS'salt'
p6275
aS'lard'
p6276
aS'milk'
p6277
aS'water'
p6278
aS'olive oil'
p6279
aS'banana shallots'
p6280
aS'garlic clove'
p6281
aS'minced venison'
p6282
aS'free-range eggs'
p6283
aS'ground juniper berries'
p6284
aS'ground cloves'
p6285
aS'thyme leaves'
p6286
aS'flatleaf parsley'
p6287
aS'salt and freshly ground black pepper'
p6288
aS'venison steak'
p6289
aS'leaf gelatine'
p6290
aS'chicken stock'
p6291
aS'bay leaf'
p6292
aS'peppercorns'
p6293
aS'butter'
p6294
aS'red onion'
p6295
aS'garlic clove'
p6296
aS'caster sugar'
p6297
aS'thyme leaves'
p6298
aS'red wine'
p6299
aS'good red wine vinegar'
p6300
atp6301
tp6302
Rp6303
sS'Baked raspberry cheesecake'
p6304
g2
(g3
g4
(S'http://www.bbc.co.uk/food/recipes/bakedraspberrycheese_86567'
p6305
S'James Martin'
p6306
(lp6307
S'ready-made sponge base'
p6308
aS'raspberry liqueur'
p6309
aS'caster sugar'
p6310
aS'lemon'
p6311
aS'cornflour'
p6312
aS'full-fat cream cheese'
p6313
aS'free-range eggs'
p6314
aS'vanilla pod'
p6315
aS'double cream'
p6316
aS'raspberries'
p6317
aS'white chocolate'
p6318
aS'raspberries'
p6319
aS'raspberry liqueur'
p6320
aS'lemon'
p6321
aS'icing sugar'
p6322
aS'double cream, lightly whipped'
p6323
atp6324
tp6325
Rp6326
sS'Quick apricot, apple and pecan loaf cake'
p6327
g2
(g3
g4
(S'http://www.bbc.co.uk/food/recipes/quickapricotappleand_67261'
p6328
S'Delia Smith'
p6329
(lp6330
S'ready-to-eat apricots'
p6331
aS'cooking apple medium apple)'
p6332
aS'pecan nuts'
p6333
aS'of salt'
p6334
aS'level baking powder'
p6335
aS'rounded cinnamon'
p6336
aS'plain flour'
p6337
aS'wholewheat flour'
p6338
aS'butter'
p6339
aS'soft brown sugar'
p6340
aS'eggs'
p6341
aS'milk'
p6342
aS'cubes demerara sugar'
p6343
aS'level ground cinnamon'
p6344
atp6345
tp6346
Rp6347
sS'Grilled aubergines with miso'
p6348
g2
(g3
g4
(S'http://www.bbc.co.uk/food/recipes/grilledaubergineswit_90214'
p6349
S'Paul Merrett'
p6350
(lp6351
S'Japanese aubergines or large purple aubergine'
p6352
aS'vegetable oil'
p6353
aS'spring onions'
p6354
aS'light (sweet) miso paste (available in some supermarkets and in Asian grocers)'
p6355
aS'sugar'
p6356
aS'small knob fresh ginger'
p6357
aS'shoyu or light soy sauce'
p6358
aS'mirin'
p6359
atp6360
tp6361
Rp6362
sS'Blackberry fool with hazelnut biscuits'
p6363
g2
(g3
g4
(S'http://www.bbc.co.uk/food/recipes/blackberry_fool_with_11859'
p6364
S'The Hairy Bikers'
p6365
(lp6366
S'blanched hazelnuts'
p6367
aS'butter'
p6368
aS'caster sugar'
p6369
aS'unwaxed lemon'
p6370
aS'plain flour'
p6371
aS'baking powder'
p6372
aS'fresh blackberries'
p6373
aS'preserving sugar'
p6374
aS'caster sugar'
p6375
aS'fresh lemon juice'
p6376
aS'double cream'
p6377
aS'plain natural yoghurt'
p6378
aS'fresh mint leaves'
p6379
atp6380
tp6381
Rp6382
sS'Spaghettini Molly Malone'
p6383
g2
(g3
g4
(S'http://www.bbc.co.uk/food/recipes/spaghettinimollymalo_70259'
p6384
S'Paul Rankin'
p6385
(lp6386
S'large red chilli'
p6387
aS'garlic cloves'
p6388
aS'extra-virgin olive oil'
p6389
aS'cockles'
p6390
aS'mussels'
p6391
aS'dry white wine'
p6392
aS'onion'
p6393
aS'fresh parsley stalks'
p6394
aS'packet of spaghettini'
p6395
aS'roughly chopped fresh parsley'
p6396
atp6397
tp6398
Rp6399
sS'Pheasant Kiev with broad beans, peas, tarragon and cobnut salad'
p6400
g2
(g3
g4
(S'http://www.bbc.co.uk/food/recipes/pheasant_kiev_with_a_34098'
p6401
S'James Martin'
p6402
(lp6403
S'garlic bulb'
p6404
aS'double cream'
p6405
aS'fresh chives'
p6406
aS'pheasant breasts'
p6407
aS'plain flour'
p6408
aS'dried sourdough breadcrumbs'
p6409
aS'free-range eggs'
p6410
aS'vegetable oil'
p6411
aS'ready-made French dressing'
p6412
aS'clear honey'
p6413
aS'white balsamic vinegar'
p6414
aS'vegetable oil'
p6415
aS'diced shallot'
p6416
aS'garlic clove'
p6417
aS'chopped fresh parsley leaves'
p6418
aS'chopped fresh chives'
p6419
aS'chopped fresh basil leaves'
p6420
aS'chopped fresh thyme leaves'
p6421
aS'broad beans'
p6422
aS'fresh peas'
p6423
aS'rapeseed oil'
p6424
aS'fresh cobnuts'
p6425
aS'salt'
p6426
aS'chopped baby red chard'
p6427
aS'head frisee lettuce (or similar bitter, frilly-edged lettuce)'
p6428
aS'lambs lettuce leaves'
p6429
aS'tarragon leaves'
p6430
atp6431
tp6432
Rp6433
sS'Turkish kofta kebabs with minted yoghurt and kohlrabi and carrot salad'
p6434
g2
(g3
g4
(S'http://www.bbc.co.uk/food/recipes/turkishkoftakebabswi_71862'
p6435
S'Rick Stein'
p6436
(lp6437
S'minced lamb'
p6438
aS'onions'
p6439
aS'garlic cloves'
p6440
aS'dried chilli flakes'
p6441
aS'small of flatleaf parsley'
p6442
aS'oil for brushing'
p6443
aS'vine-ripened tomatoes'
p6444
aS'salt'
p6445
aS'freshly ground black pepper'
p6446
aS'Greek natural yoghurt'
p6447
aS'chopped mint'
p6448
aS'large carrots'
p6449
aS'kohlrabi'
p6450
aS'sunflower oil'
p6451
aS'cumin seeds'
p6452
aS'lemon juice'
p6453
atp6454
tp6455
Rp6456
sS'Rich chocolate pots with brandy-soaked cherries'
p6457
g2
(g3
g4
(S'http://www.bbc.co.uk/food/recipes/richchocolatepotswit_93633'
p6458
S'Sophie Dahl'
p6459
(lp6460
S'golden caster sugar'
p6461
aS'fresh cherries'
p6462
aS'cherry brandy'
p6463
aS'single cream'
p6464
aS'good quality dark chocolate, preferably cocoa, broken into pieces'
p6465
aS'large free-range egg yolks'
p6466
atp6467
tp6468
Rp6469
sS'Game pie'
p6470
g2
(g3
g4
(S'http://www.bbc.co.uk/food/recipes/gamepie_93146'
p6471
S'The Hairy Bikers'
p6472
(lp6473
S'plain flour'
p6474
aS'baking powder'
p6475
aS'unsalted butter'
p6476
aS'lard'
p6477
aS'free-range egg yolk'
p6478
aS'salt'
p6479
aS'water'
p6480
aS'vegetable oil'
p6481
aS'mixed game meat (venison, pheasant, rabbit, squirrell)'
p6482
aS'venison steak'
p6483
aS'streaky bacon'
p6484
aS'large onions'
p6485
aS'stick celery'
p6486
aS'chestnut mushrooms'
p6487
aS'plain flour'
p6488
aS'bay leaves'
p6489
aS'redcurrant jelly'
p6490
aS'beef stock'
p6491
aS'red wine'
p6492
aS'chopped fresh thyme'
p6493
aS'sea salt flakes and freshly ground black pepper'
p6494
aS'packet ready-rolled puff pastry'
p6495
aS'free-range egg'
p6496
atp6497
tp6498
Rp6499
sS'Summer berry trifle'
p6500
g2
(g3
g4
(S'http://www.bbc.co.uk/food/recipes/summerberrytrifle_93217'
p6501
S'The Hairy Bikers'
p6502
(lp6503
S'x packet raspberry or strawberry jelly'
p6504
aS'ready-made jam-filled Swiss roll'
p6505
aS'cream sherry'
p6506
aS'blueberries'
p6507
aS'raspberries'
p6508
aS'strawberries'
p6509
aS'milk'
p6510
aS'double cream'
p6511
aS'vanilla pod, split'
p6512
aS'cornflour'
p6513
aS'cold water'
p6514
aS'large free-range egg yolks'
p6515
aS'caster sugar'
p6516
aS'flaked almonds'
p6517
aS'double cream'
p6518
atp6519
tp6520
Rp6521
sS'Blue cheese and fig tarts'
p6522
g2
(g3
g4
(S'http://www.bbc.co.uk/food/recipes/blue_cheese_and_fig_34219'
p6523
S'Mary Berry'
p6524
(lp6525
S'sheets filo pastry (measuring square)'
p6526
aS'a little melted butter'
p6527
aS'ripe figs'
p6528
aS'creamy blue cheese such as dolcelatte or roquefort'
p6529
aS'lemon juice'
p6530
aS'sage leaves'
p6531
aS'sprinkling of ground paprika'
p6532
atp6533
tp6534
Rp6535
sS'Salad of radicchio, chicory and rocket'
p6536
g2
(g3
g4
(S'http://www.bbc.co.uk/food/recipes/saladofradicciochico_67562'
p6537
S'James Martin'
p6538
(lp6539
S'head radicchio'
p6540
aS'chicory cut in pieces'
p6541
aS'of rocket leaves'
p6542
aS'extra virgin olive oil'
p6543
aS'aged red wine vinegar'
p6544
aS'Dijon mustard'
p6545
aS'shallot'
p6546
aS'salt and freshly ground black pepper'
p6547
atp6548
tp6549
Rp6550
sS'Turkey breast stuffed with Italian sausage and Marsala-steeped cranberries'
p6551
g2
(g3
g4
(S'http://www.bbc.co.uk/food/recipes/turkey_breast_stuffed_43707'
p6552
S'Nigella Lawson'
p6553
(lp6554
S'dried cranberries'
p6555
aS'Marsala'
p6556
aS'olive oil'
p6557
aS'banana shallots'
p6558
aS'ground cloves'
p6559
aS'ground allspice'
p6560
aS'chopped fresh sage'
p6561
aS'Italian sausages'
p6562
aS'free-range eggs'
p6563
aS'parmesan'
p6564
aS'breadcrumbs'
p6565
aS'double breast turkey joint, boned, butterflied'
p6566
aS'duck or goose fat'
p6567
atp6568
tp6569
Rp6570
sS'Fillet of venison and wild mushroom sauce'
p6571
g2
(g3
g4
(S'http://www.bbc.co.uk/food/recipes/filletofvenisonandwi_89763'
p6572
S'Antonio Carluccio'
p6573
(lp6574
S'venison fillet'
p6575
aS'extra virgin olive oil'
p6576
aS'balsamic vinegar'
p6577
aS'carrot'
p6578
aS'onion'
p6579
aS'salt and freshly ground black pepper'
p6580
aS'unsalted butter'
p6581
aS'small onions'
p6582
aS'dried morels, soaked in warm water for hours'
p6583
aS'fresh porcini mushrooms'
p6584
aS'balsamic vinegar (aged for years)'
p6585
aS'dry sherry'
p6586
aS'double cream'
p6587
aS'salt and freshly ground black pepper'
p6588
aS'summer truffle'
p6589
atp6590
tp6591
Rp6592
sS"Poached 'cannelloni' of skate with pea risotto, asparagus and morels"
p6593
g2
(g3
g4
(S'http://www.bbc.co.uk/food/recipes/poached_cannelloni_of_47313'
p6594
S'Mark Jordan'
p6595
(lp6596
S'vegetable stock'
p6597
aS'olive oil'
p6598
aS'shallot'
p6599
aS'garlic clove'
p6600
aS'risotto rice'
p6601
aS'white wine'
p6602
aS'shelled garden peas'
p6603
aS'double cream'
p6604
aS'parmesan'
p6605
aS'finely chopped chives'
p6606
aS'finely chopped flatleaf parsley'
p6607
aS'skate wing'
p6608
aS'x asparagus'
p6609
aS'butter'
p6610
aS'small morel mushrooms'
p6611
aS'baby spinach leaves'
p6612
aS'lemon'
p6613
aS'x punnet pea shoots'
p6614
aS'x punnet purple cress'
p6615
atp6616
tp6617
Rp6618
sS'Slow-cooked vegetables'
p6619
g2
(g3
g4
(S'http://www.bbc.co.uk/food/recipes/slow-roast_vegetables_98940'
p6620
S'Raymond Blanc'
p6621
(lp6622
S'extra virgin rapeseed oil'
p6623
aS'garlic cloves (about'
p6624
aS'red onion, quartered'
p6625
aS'fennel'
p6626
aS'violet artichoke hearts'
p6627
aS'baby chicory'
p6628
aS'sea salt and freshly ground black pepper'
p6629
aS'sprigs thyme'
p6630
aS'rosemary'
p6631
aS'bay leaves'
p6632
aS'sage leaves'
p6633
aS'balsamic vinegar'
p6634
aS'pumpkin seeds'
p6635
aS'parmesan shavings'
p6636
aS'air-dried ham (such as Bayonne or Parma ham)'
p6637
aS'rye bread croutons'
p6638
atp6639
tp6640
Rp6641
sS'Fregola con arselle (Sardinian pasta and clam soup)'
p6642
g2
(g3
g4
(S'http://www.bbc.co.uk/food/recipes/fregolaconarsellesar_89307'
p6643
S'Sophie Grigson'
p6644
(lp6645
S'extra virgin olive oil'
p6646
aS'garlic cloves'
p6647
aS'chopped parsley'
p6648
aS'chilli flakes'
p6649
aS'pints fish stock'
p6650
aS'medium tomatoes, skins removed'
p6651
aS'fregola pasta'
p6652
aS'small clams'
p6653
aS'large saffron'
p6654
aS'lemon'
p6655
atp6656
tp6657
Rp6658
sS'Strawberry jam'
p6659
g2
(g3
g4
(S'http://www.bbc.co.uk/food/recipes/strawberryjam_90294'
p6660
S'Sophie Grigson'
p6661
(lp6662
S'strawberries'
p6663
aS'granulated sugar or caster sugar'
p6664
aS'lemon'
p6665
aS'small knob of butter'
p6666
atp6667
tp6668
Rp6669
sS'Parsnip and chestnut soup'
p6670
g2
(g3
g4
(S'http://www.bbc.co.uk/food/recipes/parsnip_and_chestnut_03556'
p6671
S'Bryn Williams'
p6672
(lp6673
S'unsalted butter'
p6674
aS'parsnips'
p6675
aS'small leek'
p6676
aS'white wine'
p6677
aS'cooked chestnuts (sold vacuum-packed)'
p6678
aS'pints vegetable stock (preferably homemade)'
p6679
aS'salt and freshly ground black pepper'
p6680
aS'scallops'
p6681
atp6682
tp6683
Rp6684
sS'Chorizo and couscous stuffed marrow'
p6685
g2
(g3
g4
(S'http://www.bbc.co.uk/food/recipes/chorizopepperandcous_75307'
p6686
S'Antony Worrall Thompson'
p6687
(lp6688
S'large marrow'
p6689
aS'couscous'
p6690
aS'lemon'
p6691
aS'olive oil'
p6692
aS'red onion'
p6693
aS'chorizo'
p6694
aS'roasted red pepper'
p6695
aS'vine ripened tomatoes'
p6696
aS'parsley'
p6697
aS'mint'
p6698
aS'coriander'
p6699
aS'salt and freshly ground black pepper'
p6700
atp6701
tp6702
Rp6703
sS'Cucumber soup with pickled cucumber'
p6704
g2
(g3
g4
(S'http://www.bbc.co.uk/food/recipes/cucumber_soup_with_91798'
p6705
S'Matt Tebbutt'
p6706
(lp6707
S'cucumber'
p6708
aS'salt'
p6709
aS'rice wine vinegar'
p6710
aS'caster sugar'
p6711
aS'red chilli, seeds removed'
p6712
aS'coriander seeds, toasted in a dry frying pan'
p6713
aS'finely chopped fresh mint leaves'
p6714
aS'finely chopped fresh coriander leaves'
p6715
aS'salt and freshly ground black pepper'
p6716
aS'olive oil'
p6717
aS'banana shallots'
p6718
aS'garlic clove'
p6719
aS'piece fresh root ginger'
p6720
aS'red chilli'
p6721
aS'cucumbers, each halved lengthways, seeds scooped out with a spoon'
p6722
aS'vegetable stock'
p6723
aS'salt and freshly ground black pepper'
p6724
aS'lemon'
p6725
aS'extra virgin olive oil'
p6726
atp6727
tp6728
Rp6729
sS'Summer vegetable soup'
p6730
g2
(g3
g4
(S'http://www.bbc.co.uk/food/recipes/summer_vegetable_soup_10343'
p6731
S'The Hairy Bikers'
p6732
(lp6733
S'fresh basil'
p6734
aS'olive oil (not extra virgin)'
p6735
aS'large ripe vine tomatoes, skinned, quartered'
p6736
aS'olive oil (not extra virgin)'
p6737
aS'small onion'
p6738
aS'stick celery'
p6739
aS'garlic cloves'
p6740
aS'slender, young leek'
p6741
aS'small courgettes'
p6742
aS'pints chicken stock'
p6743
aS'dried spaghetti'
p6744
aS'tomato puree'
p6745
aS'fresh peas (or frozen out of season)'
p6746
aS'freshly podded baby broad beans (or frozen out of season)'
p6747
aS'green beans'
p6748
aS'flaked sea salt and freshly ground black pepper'
p6749
aS'parmesan'
p6750
atp6751
tp6752
Rp6753
sS'Quick hot and sour noodle soup'
p6754
g2
(g3
g4
(S'http://www.bbc.co.uk/food/recipes/quickhotandsournoodl_89280'
p6755
S'Ching-He Huang'
p6756
(lp6757
S'groundnut oil'
p6758
aS'piece fresh root ginger'
p6759
aS'handfuls fresh shiitake mushrooms'
p6760
aS'red chilli, de-seeded'
p6761
aS'Shaoxing rice wine or dry sherry'
p6762
aS'pint vegetable stock'
p6763
aS'canned bamboo shoots'
p6764
aS'light soy sauce'
p6765
aS'dark soy sauce'
p6766
aS'Chinese black rice vinegar or balsamic vinegar'
p6767
aS'ground white pepper'
p6768
aS'cornflour mixed with tbsp cold water'
p6769
aS'cooked egg noodles'
p6770
aS'small handfuls beansprouts'
p6771
aS'baby sweetcorn'
p6772
aS'spring onion'
p6773
aS'cooked chicken'
p6774
atp6775
tp6776
Rp6777
sS'Warm ginger cake with rhubarb'
p6778
g2
(g3
g4
(S'http://www.bbc.co.uk/food/recipes/warm_ginger_cake_with_38189'
p6779
S'John Calton'
p6780
(lp6781
S'gelatine leaf'
p6782
aS'rhubarb'
p6783
aS'caster sugar'
p6784
aS'liquid glucose'
p6785
aS'water'
p6786
aS'lemon'
p6787
aS'red food colouring (optional)'
p6788
aS'granulated sugar'
p6789
aS'water'
p6790
aS'lemon'
p6791
aS'vanilla pod'
p6792
aS'stalks pink rhubarb'
p6793
aS'unsalted butter, softened'
p6794
aS'caster sugar'
p6795
aS'free-range eggs'
p6796
aS'plain flour'
p6797
aS'ground almonds'
p6798
aS'ground ginger'
p6799
aS'stem ginger in syrup (from a jar)'
p6800
aS'plain yoghurt'
p6801
aS'vanilla pod'
p6802
aS'lime'
p6803
atp6804
tp6805
Rp6806
sS'Scallops with truffle mash'
p6807
g2
(g3
g4
(S'http://www.bbc.co.uk/food/recipes/scallopswithtrufflem_85884'
p6808
S'Angela Griffin'
p6809
(lp6810
S'potatoes'
p6811
aS'knob butter'
p6812
aS'milk'
p6813
aS'salt and white pepper'
p6814
aS'truffle oil'
p6815
aS'large scallops (with or without roes'
p6816
aS'olive oil'
p6817
atp6818
tp6819
Rp6820
sS'Slow-roasted shoulder of lamb, braised summer vegetables and roasting juices'
p6821
g2
(g3
g4
(S'http://www.bbc.co.uk/food/recipes/slow_roasted_shoulder_of_04540'
p6822
S'Raymond Blanc'
p6823
(lp6824
S'shoulder of new season lamb'
p6825
aS'sea salt'
p6826
aS'freshly ground black pepper'
p6827
aS'sprigs rosemary, leaves only'
p6828
aS'sage leaves'
p6829
aS'olive oil'
p6830
aS'rapeseed oil'
p6831
aS'lamb bones and trimmings'
p6832
aS'bulb garlic'
p6833
aS'Chardonnay wine'
p6834
aS'bay leaf'
p6835
aS'sprigs thyme'
p6836
aS'butter'
p6837
aS'olive oil'
p6838
aS'medium onions, root intact'
p6839
aS'carrots, washed'
p6840
aS'leaves Swiss chard'
p6841
aS'Little Gem lettuce, stalk intact'
p6842
aS'yellow beetroot'
p6843
aS'sea salt and freshly ground black pepper'
p6844
aS'sprigs flatleaf parsley, leaves only'
p6845
atp6846
tp6847
Rp6848
sS'Seafood pearl barley paella'
p6849
g2
(g3
g4
(S'http://www.bbc.co.uk/food/recipes/seafood_paella_79673'
p6850
S'The Hairy Bikers'
p6851
(lp6852
S'squid, cleaned'
p6853
aS'olive oil'
p6854
aS'red onions, peeled'
p6855
aS'garlic cloves, peeled'
p6856
aS'chorizo'
p6857
aS'pearl barley (soaked in a bowl of cold water for six hours'
p6858
aS'large saffron strands'
p6859
aS'padron peppers (available from Spanish delicatessens'
p6860
aS'red pepper, stalk and seeds removed'
p6861
aS'cherry tomatoes'
p6862
aS'chargrilled artichokes (from a jar)'
p6863
aS'sweet smoked paprika'
p6864
aS'pint warm chicken or vegetable stock'
p6865
aS'grey mullet fillets, skin removed'
p6866
aS'large prawns, peeled, removed'
p6867
aS'fresh mussels, rinsed, scrubbed'
p6868
aS'lemon wedges'
p6869
atp6870
tp6871
Rp6872
sS'Seared scallops with crab, cucumber, lime and vanilla'
p6873
g2
(g3
g4
(S'http://www.bbc.co.uk/food/recipes/searedscallopswithcr_88761'
p6874
S'Bryn Williams'
p6875
(lp6876
S'egg yolks'
p6877
aS'white wine vinegar'
p6878
aS'Dijon mustard'
p6879
aS'extra virgin olive oil'
p6880
aS'rapeseed oil'
p6881
aS'salt and freshly ground black pepper'
p6882
aS'white crabmeat'
p6883
aS'finely chopped chives'
p6884
aS'cucumber'
p6885
aS'vanilla pods'
p6886
aS'limes'
p6887
aS'caster sugar'
p6888
aS'extra virgin olive oil'
p6889
aS'salt and freshly ground black pepper'
p6890
aS'large scallops'
p6891
aS'butter'
p6892
aS'punnet basil cress'
p6893
atp6894
tp6895
Rp6896
sS'Goats saddle with artichokes, morels and wild garlic'
p6897
g2
(g3
g4
(S'http://www.bbc.co.uk/food/recipes/goats_saddle_with_45211'
p6898
S'Angela Hartnett'
p6899
(lp6900
S'salted butter'
p6901
aS"goat's rack and short saddle (aged for weeks)"
p6902
aS'artichokes, trimmed, chokes removed'
p6903
aS'morel mushrooms'
p6904
aS'salt and black pepper'
p6905
aS'lazy garlic garlic clove blended with tsp olive oil)'
p6906
aS'sherry vinegar'
p6907
aS'gravy'
p6908
aS'wild garlic'
p6909
atp6910
tp6911
Rp6912
sS'Globe artichoke with Dijon mustard'
p6913
g2
(g3
g4
(S'http://www.bbc.co.uk/food/recipes/globeartichokewithdi_83912'
p6914
S'Alan Bennett'
p6915
(lp6916
S'medium globe artichoke'
p6917
aS'lemon'
p6918
aS'red wine vinegar'
p6919
aS'heaped Dijon mustard'
p6920
aS'salt and freshly ground black pepper'
p6921
aS'olive oil'
p6922
atp6923
tp6924
Rp6925
sS'Clementine custard tart'
p6926
g2
(g3
g4
(S'http://www.bbc.co.uk/food/recipes/clementine_custard_tart_77764'
p6927
S'Simon Rimmer'
p6928
(lp6929
S'single cream'
p6930
aS'ground cinnamon'
p6931
aS'vanilla pod'
p6932
aS'free-range eggs'
p6933
aS'caster sugar'
p6934
aS'clementines, peeled'
p6935
aS'x blind-baked shortcrust tart case'
p6936
atp6937
tp6938
Rp6939
sS'Sprouts, bacon and almonds'
p6940
g2
(g3
g4
(S'http://www.bbc.co.uk/food/recipes/sprouts_bacon_and_70811'
p6941
S'Nigel Slater'
p6942
(lp6943
S'rashers smoked streaky bacon'
p6944
aS'butter'
p6945
aS'Brussels sprouts'
p6946
aS'almonds'
p6947
atp6948
tp6949
Rp6950
sS'Sri Lankan turkey curry'
p6951
g2
(g3
g4
(S'http://www.bbc.co.uk/food/recipes/srilankanturkeycurry_92946'
p6952
S'Rick Stein'
p6953
(lp6954
S'uncooked long grain or basmati rice'
p6955
aS'coriander seeds'
p6956
aS'cumin seeds'
p6957
aS'fennel seeds'
p6958
aS'piece cinnamon stick'
p6959
aS'fenugreek seeds'
p6960
aS'cloves'
p6961
aS'cardamom seeds (from about green cardamom pods)'
p6962
aS'black mustard seeds'
p6963
aS'black peppercorns'
p6964
aS'dried red Kashmiri chillies'
p6965
aS'coconut or vegetable oil'
p6966
aS'cinnamon stick'
p6967
aS'cardamom pods'
p6968
aS'cloves'
p6969
aS'onions or shallots, peeled, cut in half'
p6970
aS'garlic, peeled'
p6971
aS'fresh root ginger, peeled'
p6972
aS'roasted Sri Lankan curry powder (see above)'
p6973
aS'Kashmiri chilli powder'
p6974
aS'ground turmeric'
p6975
aS'canned chopped tomatoes'
p6976
aS'fresh curry leaves'
p6977
aS'x pieces pandan leaf (available from some Asian grocers)'
p6978
aS'fat lemongrass stalk, tough outer leaves removed, cut in half'
p6979
aS'green cayenne chillies'
p6980
aS'salt'
p6981
aS'canned coconut milk'
p6982
aS'cold cooked turkey'
p6983
aS'freshly squeezed lime juice'
p6984
aS'salt and freshly ground black pepper'
p6985
aS'steamed rice'
p6986
atp6987
tp6988
Rp6989
sS'Greengage meringues with cream'
p6990
g2
(g3
g4
(S'http://www.bbc.co.uk/food/recipes/greengage_meringues_with_90358'
p6991
S'James Martin'
p6992
(lp6993
S'greengages, stones removed'
p6994
aS'caster sugar'
p6995
aS'egg whites'
p6996
aS'icing sugar'
p6997
aS'double cream'
p6998
aS'vanilla pod, split in half lengthways'
p6999
atp7000
tp7001
Rp7002
sS'Wild sea bass poached in red wine with creamed cavolo nero, ceps and crisp oysters'
p7003
g2
(g3
g4
(S'http://www.bbc.co.uk/food/recipes/wildseabasspoachedin_87456'
p7004
S'Jun Tanaka'
p7005
(lp7006
S'red port'
p7007
aS'red wine'
p7008
aS'bay leaf'
p7009
aS'black peppercorns'
p7010
aS'cardamom pods'
p7011
aS'star anis'
p7012
aS'cinnamon stick'
p7013
aS'coriander seeds'
p7014
aS'fillet from a wild sea bass'
p7015
aS'vegetable oil'
p7016
aS'cavolo nero cabbage leaves'
p7017
aS'double cream'
p7018
aS'garlic cloves'
p7019
aS'salt and freshly ground black pepper'
p7020
aS'olive oil'
p7021
aS'fresh ceps'
p7022
aS'butter'
p7023
aS'fresh oysters'
p7024
aS'plain flour'
p7025
aS'free-range eggs'
p7026
aS'breadcrumbs'
p7027
aS'Cabernet Sauvignon vinegar (or other good quality red wine vinegar)'
p7028
aS'butter'
p7029
atp7030
tp7031
Rp7032
sS'Poached eggs with wild mushrooms on toast'
p7033
g2
(g3
g4
(S'http://www.bbc.co.uk/food/recipes/poachedeggswithwildm_11200'
p7034
S'Curtis Stone'
p7035
(lp7036
S'butter'
p7037
aS'slices of brioche'
p7038
aS'white wine vinegar'
p7039
aS'water'
p7040
aS'eggs'
p7041
aS'banana shallots or onions'
p7042
aS'cloves garlic'
p7043
aS'girolles/chantrelles, trimmed'
p7044
aS'trompette de morte, trimmed'
p7045
aS'oyster mushrooms, trimmed'
p7046
aS'pied a mouton/bleu, trimmed'
p7047
aS'freshly chopped'
p7048
aS'salt and freshly ground black pepper'
p7049
atp7050
tp7051
Rp7052
sS'St Lucia buns'
p7053
g2
(g3
g4
(S'http://www.bbc.co.uk/food/recipes/pauls_st_lucia_buns_04825'
p7054
S'Paul Hollywood'
p7055
(lp7056
S'milk'
p7057
aS'saffron threads'
p7058
aS'unsalted butter'
p7059
aS'strong white bread flour'
p7060
aS'salt'
p7061
aS'x sachet instant yeast'
p7062
aS'caster sugar'
p7063
aS'quark cheese'
p7064
aS'vegetable oil'
p7065
aS'free-range egg yolk'
p7066
aS'raisins'
p7067
atp7068
tp7069
Rp7070
sS'Apricot, chestnut and aduki balls with roasted vegetables and white wine miso gravy'
p7071
g2
(g3
g4
(S'http://www.bbc.co.uk/food/recipes/apricot_chestnut_and_76988'
p7072
S'Hemsley + Hemsley'
p7073
(lp7074
S'Brussels sprouts'
p7075
aS'large carrots, peeled, trimmed'
p7076
aS'red onions'
p7077
aS'large parsnips, peeled, trimmed'
p7078
aS'heaped coconut oil'
p7079
aS'handul chopped fresh herbs'
p7080
aS'salt and freshly ground black pepper'
p7081
aS'coconut oil'
p7082
aS'ground cumin'
p7083
aS'ground turmeric'
p7084
aS'ground cinnamon'
p7085
aS'large onion'
p7086
aS'garlic cloves'
p7087
aS'tin aduki beans'
p7088
aS'chestnut flour'
p7089
aS'dried, ready-to-eat apricots,preferably organic'
p7090
aS'chopped fresh flatleaf parsley'
p7091
aS'cayenne pepper (or tsp chopped fresh chilli)'
p7092
aS'salt'
p7093
aS'freshly ground black pepper'
p7094
aS'small white onions'
p7095
aS'white wine'
p7096
aS'tamari'
p7097
aS'unpasteurised miso paste'
p7098
aS'small handul chopped fresh mixed herbs (optional)'
p7099
atp7100
tp7101
Rp7102
sS'Spiced beef stir fry wraps'
p7103
g2
(g3
g4
(S'http://www.bbc.co.uk/food/recipes/spicedbeefstirfrytop_89270'
p7104
S'Ching-He Huang'
p7105
(lp7106
S'beef fillet'
p7107
aS'groundnut oil'
p7108
aS'Shaoxing rice wine or dry sherry'
p7109
aS'light soy sauce'
p7110
aS'sea salt'
p7111
aS'large fresh coriander'
p7112
aS'spring onion'
p7113
aS'wasabi paste (available from some supermarkets and Asian grocers)'
p7114
aS'mayonnaise'
p7115
aS'caster sugar'
p7116
aS'ground cumin (to taste)'
p7117
aS'dried chilli flakes (to taste)'
p7118
aS'ground black pepper'
p7119
aS'sea salt'
p7120
aS'warm flour tortilla wraps'
p7121
atp7122
tp7123
Rp7124
sS'BBQ chicken wings with sweetcorn rice and red cabbage slaw'
p7125
g2
(g3
g4
(S'http://www.bbc.co.uk/food/recipes/bbq_chicken_wings_with_11785'
p7126
S'Lorraine Pascale'
p7127
(lp7128
S'mixed chicken wings and drumsticks'
p7129
aS'squidges of tomato ketchup'
p7130
aS'balsamic vinegar'
p7131
aS'soy sauce'
p7132
aS'Chinese five-spice powder'
p7133
aS'squidges of honey'
p7134
aS'garlic clove'
p7135
aS'few sprigs fresh thyme'
p7136
aS'sunflower oil'
p7137
aS'head of red cabbage'
p7138
aS'small red onion'
p7139
aS'small red chilli'
p7140
aS'a big of raisins'
p7141
aS'of English mustard powder (optional)'
p7142
aS'squidges of honey'
p7143
aS'Greek yoghurt'
p7144
aS'lime'
p7145
aS'easy-cook long grain rice'
p7146
aS'can sweetcorn'
p7147
aS'sunflower oil'
p7148
aS'large coriander or flat leaf parsley'
p7149
aS'salt and freshly ground black pepper'
p7150
atp7151
tp7152
Rp7153
sS'Chow mein'
p7154
g2
(g3
g4
(S'http://www.bbc.co.uk/food/recipes/chowmein_74002'
p7155
S'Ken Hom'
p7156
(lp7157
S'egg noodles'
p7158
aS'sesame oil'
p7159
aS'chicken breast'
p7160
aS'finely chopped garlic'
p7161
aS'mangetout'
p7162
aS'Parma ham or cooked ham'
p7163
aS'light soy sauce'
p7164
aS'dark soy sauce'
p7165
aS'Shaoxing rice wine or dry sherry'
p7166
aS'salt'
p7167
aS'freshly ground white pepper'
p7168
aS'sugar'
p7169
aS'finely chopped spring onions'
p7170
aS'sesame oil'
p7171
aS'light soy sauce'
p7172
aS'Shaoxing rice wine or dry sherry'
p7173
aS'sesame oil'
p7174
aS'salt'
p7175
aS'freshly ground white pepper'
p7176
atp7177
tp7178
Rp7179
sS'Chicken with roasted garlic'
p7180
g2
(g3
g4
(S'http://www.bbc.co.uk/food/recipes/chickenwithroastedga_86095'
p7181
S'Neneh Cherry and Andi Oliver'
p7182
(lp7183
S'garlic, separated into cloves'
p7184
aS'rosemary'
p7185
aS'blood oranges'
p7186
aS'large chicken'
p7187
aS'good-quality French butter'
p7188
aS'bottle Cava'
p7189
aS'bottle Cava'
p7190
aS'bottle dry white wine (to taste)'
p7191
aS'knob butter'
p7192
aS'small fresh tarragon'
p7193
aS'salt and freshly ground black pepper'
p7194
atp7195
tp7196
Rp7197
sS'Strawberry souffle with strawberry sorbet and Welsh shortbread'
p7198
g2
(g3
g4
(S'http://www.bbc.co.uk/food/recipes/strawberrysoufflewit_85837'
p7199
S'Bryn Williams'
p7200
(lp7201
S'strawberries'
p7202
aS'caster sugar'
p7203
aS'vanilla pod'
p7204
aS'cornflour'
p7205
aS'soft butter'
p7206
aS'free-range egg whites'
p7207
aS'sifted icing sugar'
p7208
aS'caster sugar'
p7209
aS'boiling water'
p7210
aS'strawberries'
p7211
aS'soft slightly salted butter'
p7212
aS'icing sugar'
p7213
aS'plain flour'
p7214
aS'salt'
p7215
atp7216
tp7217
Rp7218
sS'Apple croustade with Armagnac custard'
p7219
g2
(g3
g4
(S'http://www.bbc.co.uk/food/recipes/apple_croustade_with_56799'
p7220
S'Nick Nairn'
p7221
(lp7222
S'caster sugar'
p7223
aS'butter'
p7224
aS'water'
p7225
aS'dried cranberries'
p7226
aS'sultanas'
p7227
aS'raisins'
p7228
aS"dessert apples, such as Cox's Orange Pippin, peeled"
p7229
aS'filo pastry'
p7230
aS'ground cinnamon'
p7231
aS'clementine'
p7232
aS'lemon'
p7233
aS'clarified butter'
p7234
aS'free-range egg yolks'
p7235
aS'caster sugar'
p7236
aS'milk'
p7237
aS'double cream'
p7238
aS'Armagnac'
p7239
atp7240
tp7241
Rp7242
sS'Lemony pork with French beans'
p7243
g2
(g3
g4
(S'http://www.bbc.co.uk/food/recipes/lemonyporkescalopesw_71453'
p7244
S"Ben O'Donoghue"
p7245
(lp7246
S'finely chopped thyme'
p7247
aS'garlic cloves'
p7248
aS'lemons'
p7249
aS'freshly ground black pepper'
p7250
aS'oregano'
p7251
aS'pork escalopes'
p7252
aS'French beans, tailed, blanched'
p7253
aS'canned butter beans'
p7254
aS'medium red onion'
p7255
aS'handfuls loosely packed basil leaves'
p7256
aS'chopped flatleaf parsley'
p7257
aS'olive oil'
p7258
aS'lemons'
p7259
aS'salt'
p7260
aS'freshly ground black pepper'
p7261
aS'loosely packed wild rocket'
p7262
atp7263
tp7264
Rp7265
s.