(dp0
S'Spiced rhubarb and orange syrup'
p1
ccopy_reg
_reconstructor
p2
(c__main__
Data
p3
c__builtin__
tuple
p4
(S'http://www.bbc.co.uk/food/recipes/spiced_rhubarb_and_52795'
p5
S'Sandra'
p6
(lp7
S'oranges'
p8
aS''
p9
aS'rhubarb'
p10
aS'caster sugar'
p11
aS'cinnamon'
p12
aS'cinnamon'
p13
atp14
tp15
Rp16
sS'Apple crumble'
p17
g2
(g3
g4
(S'http://www.bbc.co.uk/food/recipes/apple_crumble_95357'
p18
S'Lorraine Pascale'
p19
(lp20
S'unsalted butter'
p21
aS'brown sugar'
p22
aS'and eating varieties)'
p23
aS'flour'
p24
aS'cold butter'
p25
aS'cinnamon'
p26
aS'demerara sugar'
p27
aS'porridge oats'
p28
atp29
tp30
Rp31
sS'Sangria'
p32
g2
(g3
g4
(S'http://www.bbc.co.uk/food/recipes/sangria_93847'
p33
S'Jill Dupleix'
p34
(lp35
S'parts red wine'
p36
a(S'part juice'
p37
S'ange juice'
p38
tp39
aS'parts lemonade'
p40
aS'ice'
p41
aS'mint'
p42
a(S'sliced fruit such as lemons'
p43
S'anges and lemons'
p44
tp45
atp46
tp47
Rp48
sS'Clams with beer, black beans and ginger'
p49
g2
(g3
g4
(S'http://www.bbc.co.uk/food/recipes/clamswithbeerblackbe_91775'
p50
S'Rick Stein'
p51
(lp52
S'carpetshell clams'
p53
aS'fermented salted Chinese black beans'
p54
aS'sugar'
p55
aS'sesame oil'
p56
aS'vegetable oil'
p57
aS'garlic'
p58
aS'root ginger'
p59
aS'red chilli'
p60
aS'lager-style beer'
p61
aS'lime'
p62
aS'spring onions'
p63
aS'coriander'
p64
atp65
tp66
Rp67
sS'Game pie'
p68
g2
(g3
g4
(S'http://www.bbc.co.uk/food/recipes/gamepie_93146'
p69
S'The Hairy Bikers'
p70
(lp71
S'flour'
p72
aS'baking powder'
p73
aS'unsalted butter'
p74
aS'lard'
p75
aS'egg yolk'
p76
aS'salt'
p77
aS'water'
p78
aS'vegetable oil'
p79
aS'game meat (venison'
p80
aS'venison steak'
p81
aS'bacon'
p82
aS'onions'
p83
aS'celery'
p84
aS'chestnut mushrooms'
p85
aS'flour'
p86
aS'bay'
p87
aS'redcurrant jelly'
p88
aS'beef stock'
p89
aS'red wine'
p90
aS'thyme'
p91
a(S'sea salt'
p92
S'freshly black pepper'
p93
tp94
aS'ready-rolled puff pastry'
p95
aS'egg'
p96
atp97
tp98
Rp99
sS'Pasta con le sarde (pasta with sardines)'
p100
g2
(g3
g4
(S'http://www.bbc.co.uk/food/recipes/pasta_con_le_sarde_pasta_79438'
p101
S'Matthew Fort'
p102
(lp103
g9
aS'olive oil'
p104
aS'brown onion'
p105
aS'anchovy'
p106
aS'sardines'
p107
a(S'strattu tomato'
p108
S'tbsp tomato'
p109
tp110
aS'currants'
p111
aS'pine nuts'
p112
aS'saffron thread'
p113
aS'bucatini pasta'
p114
aS'breadcrumbs'
p115
a(S'salt'
p116
S'freshly black pepper'
p117
tp118
atp119
tp120
Rp121
sS'Stargazey pie'
p122
g2
(g3
g4
(S'http://www.bbc.co.uk/food/recipes/stargazeypie_93663'
p123
S'Tristan Welch'
p124
(lp125
S'white chicken stock'
p126
aS'creme fraiche'
p127
aS'English mustard'
p128
aS'salt'
p129
aS'mustard powder'
p130
aS'squeeze lemon juice'
p131
aS'bacon'
p132
aS'onions'
p133
aS'all-butter puff pastry'
p134
aS'egg yolk'
p135
aS'Cornish sardines'
p136
aS'rapeseed oil'
p137
aS'butter'
p138
aS'white wine vinegar'
p139
aS"quails' eggs"
p140
atp141
tp142
Rp143
sS'Irish fish chowder with soda bread'
p144
g2
(g3
g4
(S'http://www.bbc.co.uk/food/recipes/irish_fish_chowder_with_08587'
p145
S'John Torode'
p146
(lp147
S'wholemeal flour'
p148
aS'white flour'
p149
aS'soda'
p150
aS'salt'
p151
aS'buttermilk'
p152
aS'egg'
p153
aS'honey'
p154
aS'potato'
p155
aS'un-dyed haddock'
p156
aS'bay leaf'
p157
aS'shallot'
p158
aS'full- milk'
p159
aS'unsalted butter'
p160
aS'onion'
p161
aS'clove garlic'
p162
aS'sweetcorn kernels (thawed'
p163
aS'runner beans'
p164
aS'scallops'
p165
aS'steamed clams'
p166
aS'pollock fillet'
p167
aS'king prawns'
p168
aS'flat-leaf parsley'
p169
aS'freshly black pepper'
p170
atp171
tp172
Rp173
sS'Colcannon'
p174
g2
(g3
g4
(S'http://www.bbc.co.uk/food/recipes/colcannon_13802'
p175
S'Hugh Fearnley-Whittingstall'
p176
(lp177
S'floury potatoes'
p178
aS'cabbage'
p179
aS'cream'
p180
a(S'salt'
p181
S'black pepper'
p182
tp183
aS'or small onions'
p184
aS'bacon fat'
p185
atp186
tp187
Rp188
sS'Venison with sweet and sour parsnips, pear and curly kale'
p189
g2
(g3
g4
(S'http://www.bbc.co.uk/food/recipes/roastloinofvenisonwi_93125'
p190
S'Glynn Purnell'
p191
(lp192
S'venison loins'
p193
aS'freshly black pepper'
p194
aS'juniper berries'
p195
aS'butter'
p196
aS'caster sugar'
p197
aS'malt vinegar'
p198
aS'parsnip'
p199
aS'chicken stock'
p200
aS'kale'
p201
aS'Conference pear'
p202
aS'extra virgin olive oil'
p203
aS'salt'
p204
aS'red wine gravy'
p205
atp206
tp207
Rp208
sS"Mincemeat and marzipan couronne ('crown')"
p209
g2
(g3
g4
(S'http://www.bbc.co.uk/food/recipes/pauls_mincemeat_and_33176'
p210
S'Paul Hollywood'
p211
(lp212
S'white bread flour'
p213
aS'salt'
p214
aS'instant yeast'
p215
aS'unsalted butter'
p216
aS'milk'
p217
aS'egg'
p218
aS'caster sugar'
p219
aS'icing sugar'
p220
aS'almonds'
p221
aS'orange'
p222
aS'egg'
p223
aS'ready-made meat'
p224
aS'apricot jam'
p225
aS'icing sugar'
p226
aS'pistachios'
p227
aS'glace cherries'
p228
atp229
tp230
Rp231
sS'Spring minestrone soup with pesto'
p232
g2
(g3
g4
(S'http://www.bbc.co.uk/food/recipes/springminestronesoup_74617'
p233
S'Mary Berry'
p234
(lp235
S'olive oil'
p236
aS'butter'
p237
aS'onions'
p238
aS'leek'
p239
aS'potatoes'
p240
aS'celery'
p241
aS'savoy cabbage'
p242
a(S'beef stock'
p243
S'vegetable stock'
p244
tp245
aS'can Italian tomatoes'
p246
a(S'salt'
p247
S'freshly black pepper'
p248
tp249
aS'green basil pesto'
p250
atp251
tp252
Rp253
sS'Waffles with strawberry compote and ice cream'
p254
g2
(g3
g4
(S'http://www.bbc.co.uk/food/recipes/waffles_with_strawberry_51757'
p255
S'James Martin'
p256
(lp257
S'flour'
p258
aS'baking powder'
p259
aS'salt'
p260
aS'caster sugar'
p261
aS'eggs'
p262
aS'full- milk'
p263
aS'butter'
p264
aS'caster sugar'
p265
aS'butter'
p266
aS'strawberries'
p267
aS'lemon'
p268
aS'vanilla ice cream'
p269
aS'maple syrup'
p270
atp271
tp272
Rp273
sS'Cockle cream with bacon, tomatoes and potatoes'
p274
g2
(g3
g4
(S'http://www.bbc.co.uk/food/recipes/cocklecreamwithbacon_11640'
p275
S'Rick Stein'
p276
(lp277
S'cleaned cockles'
p278
aS'water'
p279
aS'butter'
p280
aS'lean bacon'
p281
aS'leek'
p282
aS'celery'
p283
aS'plum tomatoes'
p284
aS'potatoes'
p285
aS'lemon'
p286
aS'eggs'
p287
aS'parsley'
p288
a(S'salt'
p289
S'freshly black pepper'
p290
tp291
atp292
tp293
Rp294
sS'Warm ginger cake with rhubarb'
p295
g2
(g3
g4
(S'http://www.bbc.co.uk/food/recipes/warm_ginger_cake_with_38189'
p296
S'John Calton'
p297
(lp298
S'gelatine leaf'
p299
aS'rhubarb'
p300
aS'caster sugar'
p301
aS'liquid glucose'
p302
aS'water'
p303
aS'lemon'
p304
aS'red food colouring'
p305
aS'granulated sugar'
p306
aS'water'
p307
aS'lemon'
p308
aS'vanilla pod'
p309
aS's pink rhubarb'
p310
aS'unsalted butter'
p311
aS'caster sugar'
p312
aS'eggs'
p313
aS'flour'
p314
aS'almonds'
p315
aS'ginger'
p316
aS'stem ginger'
p317
aS'yoghurt'
p318
aS'vanilla pod'
p319
aS'lime'
p320
atp321
tp322
Rp323
sS'Cranberry and Cumberland sauce'
p324
g2
(g3
g4
(S'http://www.bbc.co.uk/food/recipes/cranberryandcumberla_70984'
p325
S'Antony Worrall Thompson'
p326
(lp327
S'cranberries'
p328
aS'ruby port'
p329
aS'caster sugar'
p330
aS'orange juice'
p331
aS'corn flour'
p332
aS'English mustard powder'
p333
aS'lemon juice'
p334
aS'ground'
p335
aS'sultanas'
p336
aS'flaked almonds'
p337
aS'orange rind'
p338
aS'lemon rind'
p339
aS'salt'
p340
atp341
tp342
Rp343
sS'Little Bramley apple pies'
p344
g2
(g3
g4
(S'http://www.bbc.co.uk/food/recipes/little_bramley_apple_47170'
p345
S'Lorraine Pascale'
p346
(lp347
S'Bramley apples'
p348
aS'brown sugar'
p349
aS'cinnamon'
p350
aS'ginger'
p351
aS'lemon'
p352
aS'butter'
p353
aS'flour'
p354
aS'puff pastry'
p355
aS'egg'
p356
aS'icing sugar'
p357
aS'softly whipped cream'
p358
atp359
tp360
Rp361
sS'Drowned tomatoes'
p362
g2
(g3
g4
(S'http://www.bbc.co.uk/food/recipes/drowned_tomatoes_24791'
p363
S'Alex Lomax and Ed Bond'
p364
(lp365
S'olive oil'
p366
aS'garlic'
p367
aS'savoury herbs'
p368
aS'tomatoes'
p369
a(S'salt'
p370
S'pepper'
p371
tp372
atp373
tp374
Rp375
sS'Fragrant pork and aubergines'
p376
g2
(g3
g4
(S'http://www.bbc.co.uk/food/recipes/fragrantpork_89290'
p377
S'Ching-He Huang'
p378
(lp379
S'groundnut oil'
p380
aS'aubergine'
p381
aS'garlic'
p382
aS'root ginger'
p383
aS'red chilli'
p384
aS'pork'
p385
aS'Shaoxing rice wine or dry sherry'
p386
aS'chilli bean sauce'
p387
aS'hot chicken stock'
p388
aS'pak choi or Chinese cabbage'
p389
aS'rice vinegar or cider vinegar'
p390
aS'toasted sesame oil'
p391
aS'spring onions'
p392
aS'cornflour'
p393
aS'groundnut oil'
p394
aS'aubergine'
p395
aS'garlic'
p396
aS'root ginger'
p397
aS'red chilli'
p398
aS'pork'
p399
aS'Shaoxing rice wine or dry sherry'
p400
aS'chilli bean sauce'
p401
aS'hot chicken stock'
p402
aS'pak choi or Chinese cabbage'
p403
aS'rice vinegar or cider vinegar'
p404
aS'toasted sesame oil'
p405
aS'spring onions'
p406
aS'cornflour'
p407
atp408
tp409
Rp410
s.