(dp0
S'Venison with blueberries'
p1
ccopy_reg
_reconstructor
p2
(c__main__
Data
p3
c__builtin__
tuple
p4
(S'http://www.bbc.co.uk/food/recipes/venisonwithblueberri_86030'
p5
S'Brenda Blethyn'
p6
(lp7
S'blueberries'
p8
aS'white wine or sherry'
p9
aS'sugar'
p10
aS'balsamic vinegar'
p11
aS'orange juice'
p12
a(S'salt'
p13
S'freshly black pepper'
p14
tp15
aS'butter'
p16
aS'butter'
p17
aS'olive oil'
p18
aS'venison steaks'
p19
atp20
tp21
Rp22
sS'Raspberry marshmallows'
p23
g2
(g3
g4
(S'http://www.bbc.co.uk/food/recipes/raspberrymarshmallow_86118'
p24
S'James Martin'
p25
(lp26
S'granulated sugar'
p27
aS'liquid glucose'
p28
aS'water'
p29
aS'egg whites'
p30
aS'gelatine'
p31
aS'vanilla extract'
p32
aS'icing sugar'
p33
aS'cornflour'
p34
aS'raspberries'
p35
aS'white chocolate'
p36
atp37
tp38
Rp39
sS'Chow mein'
p40
g2
(g3
g4
(S'http://www.bbc.co.uk/food/recipes/chowmein_74002'
p41
S'Ken Hom'
p42
(lp43
S'egg noodles'
p44
aS'sesame oil'
p45
aS'chicken breast'
p46
aS'garlic'
p47
aS'mangetout'
p48
a(S'Parma ham'
p49
S'ham'
p50
tp51
aS'soy sauce'
p52
aS'dark soy sauce'
p53
aS'Shaoxing rice wine or dry sherry'
p54
aS'salt'
p55
aS'freshly white pepper'
p56
aS'sugar'
p57
aS'spring onions'
p58
aS'sesame oil'
p59
aS'soy sauce'
p60
aS'Shaoxing rice wine or dry sherry'
p61
aS'sesame oil'
p62
aS'salt'
p63
aS'freshly white pepper'
p64
atp65
tp66
Rp67
sS'Wheat tart (Pastiera di grano)'
p68
g2
(g3
g4
(S'http://www.bbc.co.uk/food/recipes/wheattartpastieradig_91172'
p69
S'Antonio Carluccio'
p70
(lp71
S'water (or alternatively use wheat'
p72
aS'milk'
p73
aS'lemon'
p74
aS'cinnamon'
p75
aS'sugar'
p76
aS'orange'
p77
aS'ricotta cheese'
p78
aS'eggs'
p79
aS'orange flower water'
p80
aS'candied peel'
p81
aS'caster sugar'
p82
aS'butter'
p83
aS'icing sugar'
p84
aS'caster sugar'
p85
a(S'butter'
p86
S'lard'
p87
tp88
aS'egg yolks'
p89
aS'flour'
p90
atp91
tp92
Rp93
sS'Goats cheese and white peach salad with truffled mascarpone cream'
p94
g2
(g3
g4
(S'http://www.bbc.co.uk/food/recipes/goats_cheese_and_white_91501'
p95
S'Ed Baines'
p96
(lp97
S'cobnuts'
p98
aS'breadcrumbs'
p99
aS'Crottin de Chavignol goats cheese'
p100
aS'white peaches'
p101
aS'honey'
p102
aS'black truffle'
p103
aS'mascarpone'
p104
aS'frisee'
p105
aS'red chard'
p106
aS'alfalfa sprouts'
p107
atp108
tp109
Rp110
sS'Victorian sugar plums'
p111
g2
(g3
g4
(S'http://www.bbc.co.uk/food/recipes/victoriansugarplums_92623'
p112
S'None listed'
p113
(lp114
S'sugar'
p115
aS'jar plums'
p116
atp117
tp118
Rp119
sS'Artichoke with smoked bacon mayonnaise'
p120
g2
(g3
g4
(S'http://www.bbc.co.uk/food/recipes/artichoke_with_smoked_62303'
p121
S'James Martin'
p122
(lp123
S'globe artichokes'
p124
aS'lemons'
p125
aS'salt'
p126
aS'flour'
p127
aS'bacon'
p128
aS'egg yolks'
p129
aS'Dijon mustard'
p130
aS'rapeseed oil'
p131
a(S'salt'
p132
S'freshly black pepper'
p133
tp134
atp135
tp136
Rp137
sS'Game pie'
p138
g2
(g3
g4
(S'http://www.bbc.co.uk/food/recipes/gamepie_93146'
p139
S'The Hairy Bikers'
p140
(lp141
S'flour'
p142
aS'baking powder'
p143
aS'unsalted butter'
p144
aS'lard'
p145
aS'egg yolk'
p146
aS'salt'
p147
aS'water'
p148
aS'vegetable oil'
p149
aS'game meat (venison'
p150
aS'venison steak'
p151
aS'bacon'
p152
aS'onions'
p153
aS'celery'
p154
aS'chestnut mushrooms'
p155
aS'flour'
p156
aS'bay'
p157
aS'redcurrant jelly'
p158
aS'beef stock'
p159
aS'red wine'
p160
aS'thyme'
p161
a(S'sea salt'
p162
S'freshly black pepper'
p163
tp164
aS'ready-rolled puff pastry'
p165
aS'egg'
p166
atp167
tp168
Rp169
sS'Blueberry butter'
p170
g2
(g3
g4
(S'http://www.bbc.co.uk/food/recipes/blueberry_butter_07052'
p171
S'Jo Wesley and Avril Rogers'
p172
(lp173
S'apples'
p174
aS'blueberries'
p175
aS'apple juice'
p176
aS'orange'
p177
aS'sugar'
p178
atp179
tp180
Rp181
sS'Mincemeat hot cakes with brandy butter'
p182
g2
(g3
g4
(S'http://www.bbc.co.uk/food/recipes/mincemeat_hot_cakes_with_55190'
p183
S'Nigel Slater'
p184
(lp185
S'eggs'
p186
aS'ready-made meat'
p187
aS'flour'
p188
aS'a clementine'
p189
aS'butter'
p190
aS'brandy butter'
p191
atp192
tp193
Rp194
sS'Elderflower cordial'
p195
g2
(g3
g4
(S'http://www.bbc.co.uk/food/recipes/elderflower_cordial_21346'
p196
S'Mary Berry'
p197
(lp198
S'caster sugar'
p199
aS'lemons'
p200
aS'elderflowers'
p201
aS'citric acid'
p202
aS'Campden tablets'
p203
atp204
tp205
Rp206
sS'Slow roast shoulder of pork with roasties and apple sauce with hispi cabbage'
p207
g2
(g3
g4
(S'http://www.bbc.co.uk/food/recipes/slow_roast_shoulder_of_13963'
p208
S'James Martin'
p209
(lp210
S'pork'
p211
aS'olive oil'
p212
aS'sea salt'
p213
aS'sprigs thyme'
p214
aS'duck'
p215
aS'King Edward potatoes'
p216
aS'Bramley apples'
p217
aS'butter'
p218
aS'caster sugar'
p219
aS'hispi cabbage'
p220
a(S'salt'
p221
S'freshly black pepper'
p222
tp223
atp224
tp225
Rp226
sS'Rhubarb and custard tart'
p227
g2
(g3
g4
(S'http://www.bbc.co.uk/food/recipes/rhubarb_and_custard_tart_01442'
p228
S'The Hairy Bikers'
p229
(lp230
S'flour'
p231
aS'cold butter'
p232
aS'egg'
p233
aS'eggs'
p234
aS'egg yolks'
p235
aS'caster sugar'
p236
aS'milk'
p237
aS'double cream'
p238
aS'vanilla pod'
p239
aS'caster sugar'
p240
aS'rhubarb'
p241
atp242
tp243
Rp244
sS'Apple croustade with Armagnac custard'
p245
g2
(g3
g4
(S'http://www.bbc.co.uk/food/recipes/apple_croustade_with_56799'
p246
S'Nick Nairn'
p247
(lp248
S'caster sugar'
p249
aS'butter'
p250
aS'water'
p251
aS'cranberries'
p252
aS'sultanas'
p253
aS'raisins'
p254
aS'dessert apples'
p255
aS'filo pastry'
p256
aS'cinnamon'
p257
aS'clementine'
p258
aS'lemon'
p259
aS'butter'
p260
aS'egg yolks'
p261
aS'caster sugar'
p262
aS'milk'
p263
aS'double cream'
p264
aS'Armagnac'
p265
atp266
tp267
Rp268
sS'Kale and quinoa saute with orange tahini dressing'
p269
g2
(g3
g4
(S'http://www.bbc.co.uk/food/recipes/kale_and_quinoa_saut_64469'
p270
S'Hemsley + Hemsley'
p271
(lp272
S'quinoa'
p273
aS'extra virgin olive oil'
p274
aS'coconut oil'
p275
aS'kale'
p276
aS'garlic clove'
p277
a(S'coriander parsley'
p278
S'flatleaf parsley'
p279
tp280
aS'unwaxed orange'
p281
aS'sea salt'
p282
aS'tahini'
p283
aS'extra virgin olive oil'
p284
aS'garlic clove'
p285
aS'water'
p286
aS'orange juice'
p287
a(S'salt'
p288
S'freshly black pepper'
p289
tp290
atp291
tp292
Rp293
sS'The bramble'
p294
g2
(g3
g4
(S'http://www.bbc.co.uk/food/recipes/the_bramble_39344'
p295
S'Wayne Collins'
p296
(lp297
S'gin'
p298
aS'lemon juice'
p299
aS'sugar syrup'
p300
aS'blackberry liqueur'
p301
a(S'lemon'
p302
S'a blackberry'
p303
tp304
atp305
tp306
Rp307
sS'Slow roast leg of lamb with chardonnay, rosemary, sage and bay'
p308
g2
(g3
g4
(S'http://www.bbc.co.uk/food/recipes/slow_roast_leg_of_lamb_85170'
p309
S'Lorraine Pascale'
p310
(lp311
S'lamb (the thick fillet end) with bone in'
p312
a(S'salt'
p313
S'pepper'
p314
tp315
aS'red onions'
p316
aS'garlic'
p317
aS'rosemary sprigs'
p318
aS'sage'
p319
aS'bay'
p320
aS'white wine'
p321
aS'honey'
p322
aS'potatoes'
p323
aS'olive oil'
p324
aS'frozen peas'
p325
atp326
tp327
Rp328
sS'Chicken with forty cloves of garlic'
p329
g2
(g3
g4
(S'http://www.bbc.co.uk/food/recipes/chicken_with_40_cloves_22211'
p330
S'The Hairy Bikers'
p331
(lp332
S'shallots'
p333
aS'oven-ready chicken'
p334
aS'lemon'
p335
aS'bay leaf'
p336
aS'thyme'
p337
aS'butter'
p338
aS'sunflower oil'
p339
aS'garlic'
p340
aS'vermouth'
p341
aS'chicken stock'
p342
aS'tarragon'
p343
a(S'double cream fraiche'
p344
S'creme fraiche'
p345
tp346
a(S'flaked sea salt'
p347
S'freshly black pepper'
p348
tp349
aS'baguette'
p350
aS'floury potatoes'
p351
aS'butter'
p352
aS'rindless bacon'
p353
aS'kale'
p354
aS'spring onions'
p355
aS'double cream'
p356
a(S'flaked sea salt'
p357
S'freshly black pepper'
p358
tp359
atp360
tp361
Rp362
sS'Winter roots and lemon roast'
p363
g2
(g3
g4
(S'http://www.bbc.co.uk/food/recipes/winter_roots_and_lemon_06059'
p364
S'Nigel Slater'
p365
(lp366
S'Jerusalem artichokes'
p367
aS'potatoes'
p368
aS'olive oil'
p369
aS'lemons'
p370
a(S'salt'
p371
S'black pepper'
p372
tp373
aS'flatleaf parsley'
p374
aS'parmesan'
p375
atp376
tp377
Rp378
sS'Globe artichoke salad'
p379
g2
(g3
g4
(S'http://www.bbc.co.uk/food/recipes/globeartichokesalad_90217'
p380
S'Paul Merrett'
p381
(lp382
S'globe artichoke per person'
p383
aS'olive oil'
p384
aS'shallots'
p385
aS'garlic'
p386
aS'sprigs thyme'
p387
aS'plum tomatoes'
p388
aS'dry white wine'
p389
aS'water'
p390
aS'mushrooms'
p391
aS'olive oil'
p392
aS'garlic'
p393
aS'lemon'
p394
aS'sherry vinegar'
p395
aS'extra virgin olive oil'
p396
aS'parmesan'
p397
aS'cracked black pepper'
p398
aS'rock salt'
p399
aS'garlic'
p400
aS'cherry tomatoes'
p401
aS'lettuce such as Little Gem'
p402
atp403
tp404
Rp405
s.