(dp0
S'Turkey salad with Chinese cabbage, beansprouts and Vietnamese mint'
p1
ccopy_reg
_reconstructor
p2
(c__main__
Data
p3
c__builtin__
tuple
p4
(S'http://www.bbc.co.uk/food/recipes/turkeysaladwithchine_92947'
p5
S'Rick Stein'
p6
(lp7
S'shallots'
p8
aS'salt'
p9
aS'cold'
p10
aS'Chinese cabbage'
p11
aS'beansprouts'
p12
aS'carrot'
p13
aS'Vietnamese mint'
p14
aS'roasted peanuts'
p15
aS'black pepper'
p16
aS'fish sauce'
p17
aS'lime juice'
p18
aS'rice vinegar'
p19
aS'caster sugar'
p20
aS'very chopped garlic'
p21
aS"red bird's-eye chillies"
p22
atp23
tp24
Rp25
sS'Boiled lemon and artichoke salad'
p26
g2
(g3
g4
(S'http://www.bbc.co.uk/food/recipes/boiledlemonandartich_84656'
p27
S'Rose Gray and Ruth Rogers'
p28
(lp29
S'thick-skinned lemons'
p30
aS'sea salt'
p31
aS'globe artichokes'
p32
aS'almonds'
p33
aS'chopped thyme'
p34
aS'honey'
p35
aS'lemon'
p36
aS'extra virgin olive oil'
p37
atp38
tp39
Rp40
sS'Curranty cordial'
p41
g2
(g3
g4
(S'http://www.bbc.co.uk/food/recipes/curranty_cordial_71718'
p42
S'Jo Wesley and Avril Rogers'
p43
(lp44
S'redcurrants'
p45
aS'blackcurrants'
p46
aS'strawberries'
p47
aS'granulated sugar'
p48
aS'lemon'
p49
atp50
tp51
Rp52
sS'Pasta con le sarde (pasta with sardines)'
p53
g2
(g3
g4
(S'http://www.bbc.co.uk/food/recipes/pasta_con_le_sarde_pasta_79438'
p54
S'Matthew Fort'
p55
(lp56
S''
p57
aS'olive oil'
p58
aS'brown onion'
p59
aS'anchovy in oil'
p60
aS'sardines'
p61
aS'strattu or tbsp tomato'
p62
aS'currants'
p63
aS'pine nuts'
p64
aS'saffron thread'
p65
aS'bucatini pasta'
p66
aS'breadcrumbs'
p67
aS'salt and black pepper'
p68
atp69
tp70
Rp71
sS'Rooibos sponge cake with quince jam and vanilla saffron icing'
p72
g2
(g3
g4
(S'http://www.bbc.co.uk/food/recipes/rooibos_sponge_cake_with_62311'
p73
S'Tim Anderson'
p74
(lp75
S'butter'
p76
aS'caster sugar'
p77
aS'eggs'
p78
aS'self-raising flour'
p79
aS'rooibos tea'
p80
aS'quinces'
p81
aS'water'
p82
aS'lemon'
p83
aS'caster sugar'
p84
aS'pectin'
p85
aS'vanilla beans'
p86
aS'strands saffron'
p87
aS'clotted cream'
p88
aS'whipping cream'
p89
aS'icing sugar'
p90
atp91
tp92
Rp93
sS'Escalope of chicken with rocket, sage and lemon'
p94
g2
(g3
g4
(S'http://www.bbc.co.uk/food/recipes/escalopeofchickenwit_92046'
p95
S'Paul Merrett'
p96
(lp97
S'boneless chicken breasts'
p98
aS'sage'
p99
aS'black peppercorns'
p100
aS'plain flour'
p101
aS'eggs'
p102
aS'milk'
p103
aS'breadcrumbs'
p104
aS'unsalted butter'
p105
aS'lemon'
p106
aS'olive oil'
p107
aS'splash balsamic vinegar'
p108
aS'rocket'
p109
aS'parmesan'
p110
atp111
tp112
Rp113
sS'Pan-fried gurnard with broad bean, spinach and mint stew'
p114
g2
(g3
g4
(S'http://www.bbc.co.uk/food/recipes/pan-fried_gurnard_with_79627'
p115
S'Cass Titcombe'
p116
(lp117
S'olive oil'
p118
aS'new potatoes'
p119
aS'onion'
p120
aS'garlic clove'
p121
aS'chicken stock'
p122
aS'salt'
p123
aS'shelled and podded broad beans'
p124
aS'spinach'
p125
aS'mint'
p126
aS'black pepper'
p127
aS'x gurnard'
p128
aS'streaky bacon'
p129
atp130
tp131
Rp132
sS'Vegetable gnocchi gratin'
p133
g2
(g3
g4
(S'http://www.bbc.co.uk/food/recipes/vegetable_gnocchi_gratin_53883'
p134
S'Cheryl Ferguson'
p135
(lp136
S'butternut squash'
p137
aS'olive oil'
p138
aS'sea salt and black pepper'
p139
aS'winter greens'
p140
aS'x bag gnocchi'
p141
aS'red onion'
p142
aS'thyme'
p143
aS'rosemary'
p144
aS'garlic clove'
p145
aS'chestnut mushrooms'
p146
aS'tub'
p147
aS"goats' cheese"
p148
aS'Japanese panko breadcrumbs'
p149
aS'parmesan'
p150
aS'leaves'
p151
aS'olive oil'
p152
aS'lemon'
p153
atp154
tp155
Rp156
sS'Game sausage roll with wild mushrooms and pickled walnuts'
p157
g2
(g3
g4
(S'http://www.bbc.co.uk/food/recipes/game_sausage_roll_with_85483'
p158
S'Bryn Williams'
p159
(lp160
S'd pork belly'
p161
aS'minced game'
p162
aS'eggs'
p163
aS'thyme'
p164
aS'chestnuts'
p165
aS'allspice'
p166
aS'x packet puff pastry'
p167
aS'plain flour'
p168
aS'salt and black pepper'
p169
aS'butter'
p170
aS'mushrooms'
p171
aS'double cream'
p172
aS'Dijon mustard'
p173
aS'pickled walnuts'
p174
aS'dandelion'
p175
atp176
tp177
Rp178
sS'Roasted quail with watermelon, spring onions, cobnuts and quail vinaigrette'
p179
g2
(g3
g4
(S'http://www.bbc.co.uk/food/recipes/roastedquailwithwate_86956'
p180
S'Marcus Wareing'
p181
(lp182
S'chicken stock'
p183
aS'thyme'
p184
aS'bulb garlic'
p185
aS'quails'
p186
aS'pomace oil or quality olive oil'
p187
aS'unsalted butter'
p188
aS'cobnuts'
p189
aS'olive oil'
p190
aS'quail legs'
p191
aS'shallots'
p192
aS'thyme'
p193
aS'rosemary'
p194
aS'approximately brown chicken stock'
p195
aS'extra virgin olive oil'
p196
aS'white wine vinegar'
p197
aS'salt and black pepper'
p198
aS'butter'
p199
aS'garlic clove'
p200
aS'bay leaf'
p201
aS'spring onions'
p202
aS'chicken stock'
p203
aS'watermelon'
p204
aS'olive oil'
p205
aS'black pepper'
p206
atp207
tp208
Rp209
s.