(dp0
S'Lemongrass and ginger mussels'
p1
ccopy_reg
_reconstructor
p2
(c__main__
Data
p3
c__builtin__
tuple
p4
(S'http://www.bbc.co.uk/food/recipes/lemongrass_and_ginger_63752'
p5
S'James Martin'
p6
(lp7
S'unsalted butter'
p8
aS'shallots'
p9
aS'lemongrass stalks, tough outer leaves discarded'
p10
aS'garlic cloves'
p11
aS'piece fresh root ginger, peeled'
p12
aS'red chillies (depending on their heat)'
p13
aS'white wine'
p14
aS'coconut water'
p15
aS'coconut cream'
p16
aS'mussels, rinsed, scrubbed'
p17
aS'olive oil'
p18
aS'loaf sourdough bread'
p19
aS'roughly chopped fresh coriander leaves'
p20
aS'salt and freshly ground black pepper'
p21
atp22
tp23
Rp24
sS'Spiced cauliflower with toasted coconut and red lentils'
p25
g2
(g3
g4
(S'http://www.bbc.co.uk/food/recipes/spiced_cauliflower_with_77223'
p26
S'Glynn Purnell'
p27
(lp28
S'large fresh coriander'
p29
aS'vegetable oil'
p30
aS'large carrots'
p31
aS'caster sugar'
p32
aS'sherry vinegar'
p33
aS'sunflower oil'
p34
aS'dark soy sauce'
p35
aS'butter'
p36
aS'mild curry powder'
p37
aS'ground cumin'
p38
aS'ground ginger'
p39
aS'cinnamon stick'
p40
aS'cloves'
p41
aS'coriander seeds'
p42
aS'fenugreek seeds'
p43
aS'dried chilli flakes'
p44
aS'large cauliflower, root and outer leaves removed'
p45
aS'pints vegetable stock'
p46
aS'butter'
p47
aS'lime juice'
p48
aS'sunflower oil'
p49
aS'onion'
p50
aS'garlic clove'
p51
aS'mild curry powder'
p52
aS'red lentils'
p53
aS'vegetable stock'
p54
aS'red chilli, seeds removed'
p55
aS'chopped fresh coriander'
p56
aS'lime'
p57
aS'x tin coconut milk'
p58
aS'lime leaf'
p59
aS'fresh mint leaves'
p60
aS'salt'
p61
aS'fresh coconut, split open'
p62
atp63
tp64
Rp65
sS'Blueberry, blackcurrant and basil curd'
p66
g2
(g3
g4
(S'http://www.bbc.co.uk/food/recipes/blueberry_and_basil_curd_56487'
p67
S'Gary Murdock and Pete Taylor'
p68
(lp69
S'mixed blueberries and blackcurrants'
p70
aS'lemon'
p71
aS'butter'
p72
aS'caster sugar'
p73
aS'small free-range eggs'
p74
aS'purple basil leaves'
p75
atp76
tp77
Rp78
sS'Seafood pasta with garlic bread'
p79
g2
(g3
g4
(S'http://www.bbc.co.uk/food/recipes/seafood_pasta_with_73534'
p80
S'The Hairy Bikers'
p81
(lp82
S'slices ciabatta'
p83
aS'olive oil'
p84
aS'butter'
p85
aS'clove garlic'
p86
aS'finely chopped parsley'
p87
aS'fresh pasta such as linguine or tagliatelle'
p88
aS'olive oil'
p89
aS'banana shallot'
p90
aS'clove garlic'
p91
aS'dried chilli flakes'
p92
aS'cherry tomatoes'
p93
aS'vermouth'
p94
aS'fresh mussels'
p95
aS'raw tiger prawns, peeled'
p96
aS'medium squid, cleaned'
p97
aS'creme fraiche'
p98
aS'small tarragon leaves'
p99
aS'small basil leaves, shredded'
p100
aS'lemon'
p101
aS'sea salt and freshly ground black pepper'
p102
aS'salad leaves, lightly dressed with olive oil and lemon juice'
p103
atp104
tp105
Rp106
sS'Kentish cobnut cake and apple compote'
p107
g2
(g3
g4
(S'http://www.bbc.co.uk/food/recipes/kentishcobnutcakeand_92135'
p108
S'The Hairy Bikers'
p109
(lp110
S'self-raising flour'
p111
aS'butter, melted'
p112
aS'ground ginger'
p113
aS'light soft brown sugar'
p114
aS'free-range eggs'
p115
aS'double cream'
p116
aS'cobnuts, shells removed'
p117
aS'butter'
p118
aS'apples, peeled, cores removed'
p119
aS'caster sugar'
p120
aS'ground cinnamon'
p121
aS'double cream, lightly whipped'
p122
atp123
tp124
Rp125
sS'The bramble'
p126
g2
(g3
g4
(S'http://www.bbc.co.uk/food/recipes/the_bramble_39344'
p127
S'Wayne Collins'
p128
(lp129
S'gin'
p130
aS'lemon juice'
p131
aS'sugar syrup'
p132
aS'blackberry liqueur'
p133
aS'slice of lemon and a blackberry'
p134
atp135
tp136
Rp137
sS'Roast teal, purple sprouting broccoli and salsify'
p138
g2
(g3
g4
(S'http://www.bbc.co.uk/food/recipes/roasttealpurplesprou_90877'
p139
S'Tom Kitchin'
p140
(lp141
S'vegetable oil'
p142
aS'butter'
p143
aS'olive oil'
p144
aS'teal'
p145
aS'lemon'
p146
aS'salsify roots'
p147
aS'chicken stock'
p148
aS'purple sprouting broccoli'
p149
aS'pancetta'
p150
aS'plain flour'
p151
aS'ready-made game jus'
p152
atp153
tp154
Rp155
sS'New England-style clam chowder with crunchy thyme breadcrumbs'
p156
g2
(g3
g4
(S'http://www.bbc.co.uk/food/recipes/newenglandstyleclamc_93670'
p157
S'Sophie Dahl'
p158
(lp159
S'olive oil'
p160
aS'Knob of butter'
p161
aS'onion, peeled'
p162
aS'celery sticks'
p163
aS'bay leaves'
p164
aS'sprigs fresh thyme'
p165
aS'clams'
p166
aS'ear sweetcorn'
p167
aS'chicken stock'
p168
aS'red potatoes'
p169
aS'single cream'
p170
aS'Handful fresh parsley'
p171
aS'Salt and freshly ground black pepper'
p172
aS'slice spelt bread'
p173
aS'lemon'
p174
aS'olive oil'
p175
aS'sprigs fresh thyme'
p176
aS'Salt and freshly ground black pepper'
p177
aS'olive oil'
p178
aS'slices pancetta'
p179
atp180
tp181
Rp182
sS'Mini chocolate puddings with glazed satsumas'
p183
g2
(g3
g4
(S'http://www.bbc.co.uk/food/recipes/minichocolatepudding_84786'
p184
S'Lesley Waters'
p185
(lp186
S'unsalted butter'
p187
aS'self-raising flour'
p188
aS'brown sugar'
p189
aS'free-range egg'
p190
aS'cocoa powder'
p191
aS'satsumas'
p192
aS'icing sugar'
p193
aS'milk'
p194
aS'double cream'
p195
aS'brown sugar'
p196
aS'cocoa powder'
p197
aS'unsalted butter'
p198
atp199
tp200
Rp201
sS'Blueberry galette with chocolate peanut ice cream'
p202
g2
(g3
g4
(S'http://www.bbc.co.uk/food/recipes/blueberry_galette_with_46523'
p203
S'James Martin'
p204
(lp205
S'full-fat milk'
p206
aS'double cream'
p207
aS'caster sugar'
p208
aS'free-range egg yolks'
p209
aS'chocolate and peanut bars'
p210
aS'plain flour'
p211
aS'unsalted butter'
p212
aS'caster sugar'
p213
aS'free-range egg yolks'
p214
aS'fresh blueberries'
p215
aS'vanilla pod, split in half lengthways'
p216
aS'cornflour'
p217
aS'lemon'
p218
aS'demerara sugar'
p219
atp220
tp221
Rp222
sS'Grilled chicken with morel sauce, Parmentier potatoes and baby vegetables'
p223
g2
(g3
g4
(S'http://www.bbc.co.uk/food/recipes/grilled_chicken_with_34352'
p224
S'Ed Baines'
p225
(lp226
S'butter'
p227
aS'olive oil'
p228
aS'potatoes'
p229
aS'garlic clove'
p230
aS'onion'
p231
aS'sprigs rosemary'
p232
aS'salt and freshly ground black pepper'
p233
aS'lemon'
p234
aS'butter'
p235
aS'large shallot'
p236
aS'handfuls morel mushrooms'
p237
aS'generous splash Madeira'
p238
aS'chicken stock (preferably white chicken stock)'
p239
aS'double cream'
p240
aS'chicken breasts'
p241
aS'baby courgettes'
p242
aS'baby leeks'
p243
aS'sugar snap peas'
p244
aS'butter'
p245
atp246
tp247
Rp248
sS'Salmon ceviche with fennel salad'
p249
g2
(g3
g4
(S'http://www.bbc.co.uk/food/recipes/salmoncevichewithfen_85539'
p250
S'Stuart Gillies'
p251
(lp252
S'organic salmon fillet'
p253
aS'rock salt'
p254
aS'red chillies'
p255
aS'pink grapefruit juice'
p256
aS'lime zest'
p257
aS'lime juice (about limes)'
p258
aS'caster sugar'
p259
aS'coriander leaves'
p260
aS'fennel bulb'
p261
aS'baby salad leaves'
p262
atp263
tp264
Rp265
sS'Pan-fried pheasant breast with gamekeepers pie'
p266
g2
(g3
g4
(S'http://www.bbc.co.uk/food/recipes/pan-fried_pheasant_71343'
p267
S'The Hairy Bikers'
p268
(lp269
S'young whole pheasants (preferably hens)'
p270
aS'crushed sea salt'
p271
aS'goose fat'
p272
aS'garlic cloves, peeled'
p273
aS'garam masala'
p274
aS'cinnamon stick'
p275
aS'bay leaves'
p276
aS'whole black peppercorns'
p277
aS'olive oil'
p278
aS'small onion'
p279
aS'celery stalk'
p280
aS'carrot'
p281
aS'sprigs fresh thyme'
p282
aS'pints hot chicken stock'
p283
aS'floury potatoes such as Maris Piper'
p284
aS'free-range egg yolk'
p285
aS'butter'
p286
aS'large freshly grated nutmeg'
p287
aS'white pepper'
p288
aS'double cream'
p289
aS'small onion, peeled'
p290
aS'celery stalk, trimmed'
p291
aS'carrot, peeled'
p292
aS'plain flour'
p293
aS'swede, peeled'
p294
aS'carrots, peeled'
p295
aS'floury potatoes, such as Maris Piper, peeled'
p296
aS'vegetable stock cube'
p297
aS'butter'
p298
aS'salt and freshly ground black pepper'
p299
aS'salt and freshly ground black pepper'
p300
aS'olive oil'
p301
aS'sprigs fresh thyme'
p302
aS'redcurrant jelly'
p303
atp304
tp305
Rp306
sS'Sausage and greens'
p307
g2
(g3
g4
(S'http://www.bbc.co.uk/food/recipes/sausage_and_greens_94811'
p308
S'Nigel Slater'
p309
(lp310
S'curly kale'
p311
aS'cooking chorizo'
p312
aS'skinned whole almonds'
p313
aS'a little groundnut or sunflower oil'
p314
aS'a clove of garlic'
p315
aS'sea salt flakes'
p316
atp317
tp318
Rp319
sS'Moroccan lamb tagine with lemon and pomegranate couscous'
p320
g2
(g3
g4
(S'http://www.bbc.co.uk/food/recipes/moroccanlambtaginewi_84062'
p321
S'Rachel Allen'
p322
(lp323
S'olive oil'
p324
aS'garlic cloves'
p325
aS'onions'
p326
aS'grated'
p327
aS'coriander seeds'
p328
aS'ground cinnamon'
p329
aS'sea salt and freshly ground black pepper'
p330
aS'shoulder of lamb, boned'
p331
aS'tomato puree'
p332
aS'ripe tomatoes or X can tomatoes'
p333
aS'honey'
p334
aS'large or small pomegranates'
p335
aS'couscous'
p336
aS'olive oil'
p337
aS'lemons'
p338
aS'pints boiling chicken stock or water'
p339
aS'sea salt and freshly ground black pepper'
p340
aS'chopped'
p341
aS'lime'
p342
aS'bowl Greek yoghurt'
p343
atp344
tp345
Rp346
sS'Potato salad with lovage'
p347
g2
(g3
g4
(S'http://www.bbc.co.uk/food/recipes/potato_salad_with_lovage_55317'
p348
S'Valentine Warner'
p349
(lp350
S'free-range egg yolks'
p351
aS'Dijon mustard'
p352
aS'lemon'
p353
aS'white wine vinegar'
p354
aS'extra virgin olive oil'
p355
aS'sunflower oil'
p356
aS'cornichons'
p357
aS'freshly ground black pepper'
p358
aS'capers'
p359
aS'large garlic clove'
p360
aS'anchovies in oil'
p361
aS'small fresh dill'
p362
aS'small fresh tarragon'
p363
aS'small fresh lovage'
p364
aS'small red onion'
p365
aS'Pink Fir Apple potatoes'
p366
aS'salt'
p367
atp368
tp369
Rp370
sS'No-fuss fruit tart'
p371
g2
(g3
g4
(S'http://www.bbc.co.uk/food/recipes/no-fuss_fruit_tart_11008'
p372
S'Nigella Lawson'
p373
(lp374
S'digestive biscuits'
p375
aS'softened unsalted butter'
p376
aS'cream cheese'
p377
aS'ready-made lemon curd'
p378
aS'fresh blueberries'
p379
aS'fresh blackberries'
p380
aS'fresh raspberries'
p381
aS'fresh redcurrants or pomegranate seeds'
p382
aS'fresh small strawberries, half hulled'
p383
atp384
tp385
Rp386
sS'Hangover beef salad'
p387
g2
(g3
g4
(S'http://www.bbc.co.uk/food/recipes/hangover_beef_salad_06490'
p388
S'Nigel Slater'
p389
(lp390
S'Puy lentils or other small'
p391
aS'stock or water'
p392
aS'medium-sized onion'
p393
aS'fresh bay leaf'
p394
aS'garlic clove'
p395
aS'sea salt flakes'
p396
aS'red wine vinegar'
p397
aS'Dijon mustard'
p398
aS'ground black pepper'
p399
aS'olive oil'
p400
aS'short lump of fresh horseradish'
p401
aS'fresh flatleaf parsley'
p402
aS'leftover rare roast beef, thinly sliced or slices per person)'
p403
atp404
tp405
Rp406
sS'Elderflower cordial'
p407
g2
(g3
g4
(S'http://www.bbc.co.uk/food/recipes/elderflower_cordial_21346'
p408
S'Mary Berry'
p409
(lp410
S'caster sugar'
p411
aS'lemons'
p412
aS'about elderflowers'
p413
aS'citric acid'
p414
aS'Campden tablets'
p415
atp416
tp417
Rp418
sS'Tex-Mex brick chicken'
p419
g2
(g3
g4
(S'http://www.bbc.co.uk/food/recipes/tex-mex_brick_chicken_47381'
p420
S'The Hairy Bikers'
p421
(lp422
S'dried chipotle chillies'
p423
aS'habanero chilli'
p424
aS'generous sea salt flakes'
p425
aS'olive oil'
p426
aS'orange'
p427
aS'fresh oregano leaves'
p428
aS'garlic cloves'
p429
aS'large whole chicken, spatchcocked and de-boned'
p430
aS'large knob of butter'
p431
aS'onion'
p432
aS'garlic cloves'
p433
aS'fresh coriander, stalks chopped'
p434
aS'x tins good-quality Mexican black beans'
p435
aS'small red chilli, finely chopped'
p436
aS'soft tacos'
p437
aS'grated Mexican-style firm cheese, such as Oaxaca (available from specialist cheese shops or online; alternatively'
p438
aS'ready-made tomato salsa'
p439
aS'handfuls crisp lettuce such as Iceberg or Romaine lettuce'
p440
atp441
tp442
Rp443
sS'Asparagus, pea, feta and mint salad'
p444
g2
(g3
g4
(S'http://www.bbc.co.uk/food/recipes/asparagus_pea_feta_and_41658'
p445
S'Freddy Bird'
p446
(lp447
S'handfuls freshly podded peas'
p448
aS'skinny asparagus'
p449
aS'feta cheese'
p450
aS'chopped mint leaves'
p451
aS'lemon juice'
p452
aS'olive oil'
p453
aS'salt and freshly ground black pepper'
p454
aS'black onion seeds'
p455
atp456
tp457
Rp458
sS'Game sausage roll with wild mushrooms and pickled walnuts'
p459
g2
(g3
g4
(S'http://www.bbc.co.uk/food/recipes/game_sausage_roll_with_85483'
p460
S'Bryn Williams'
p461
(lp462
S'minced pork belly'
p463
aS'minced mixed game (such as venison'
p464
aS'free-range eggs, plus free-range egg yolk, beaten'
p465
aS'small fresh thyme leaves'
p466
aS'cooked chestnuts'
p467
aS'allspice'
p468
aS'x packet puff pastry'
p469
aS'plain flour'
p470
aS'salt and freshly ground black pepper'
p471
aS'butter'
p472
aS'wild mushrooms'
p473
aS'double cream'
p474
aS'Dijon mustard'
p475
aS'pickled walnuts, drained'
p476
aS'dandelion leaves'
p477
atp478
tp479
Rp480
sS'Vegetable garden risotto'
p481
g2
(g3
g4
(S'http://www.bbc.co.uk/food/recipes/vegetable_garden_risotto_60989'
p482
S'The Hairy Bikers'
p483
(lp484
S'broad beans'
p485
aS'butter'
p486
aS'olive oil'
p487
aS'chopped fresh mint leaves'
p488
aS'onion'
p489
aS'garlic cloves'
p490
aS'sprigs fresh thyme'
p491
aS'long strip lemon zest'
p492
aS'bay leaf'
p493
aS'Arborio risotto rice'
p494
aS'dry white wine'
p495
aS'pint hot vegetable stock'
p496
aS'peas'
p497
aS'asparagus'
p498
aS'fresh runner beans'
p499
aS'feta cheese'
p500
aS'sea salt flakes and freshly ground black pepper'
p501
aS'parmesan shavings'
p502
atp503
tp504
Rp505
sS'Seared salmon and chorizo salad'
p506
g2
(g3
g4
(S'http://www.bbc.co.uk/food/recipes/seared_salmon_and_30765'
p507
S'Simon Rimmer'
p508
(lp509
S'olive oil'
p510
aS'chorizo'
p511
aS'salmon fillet'
p512
aS'sherry vinegar'
p513
aS'heaped whole grain mustard'
p514
aS'extra virgin olive oil'
p515
aS'garlic clove'
p516
aS'rocket'
p517
aS'watercress'
p518
aS'shallot'
p519
aS'sunblush tomatoes'
p520
atp521
tp522
Rp523
sS'Italian Christmas pudding cake'
p524
g2
(g3
g4
(S'http://www.bbc.co.uk/food/recipes/italian_christmas_20000'
p525
S'Nigella Lawson'
p526
(lp527
S'panettone (or pandoro)'
p528
aS'Tuaca liqueur (or rum'
p529
aS'free-range eggs'
p530
aS'caster sugar'
p531
aS'mascarpone'
p532
aS'double cream'
p533
aS'Marsala'
p534
aS'marrons glaces'
p535
aS'mini chocolate chips or finely chopped chocolate'
p536
aS'pistachios'
p537
aS'pomegranate seeds'
p538
atp539
tp540
Rp541
sS'One pot partridge with bacon and chestnuts'
p542
g2
(g3
g4
(S'http://www.bbc.co.uk/food/recipes/one_pot_partridge_with_69897'
p543
S'The Hairy Bikers'
p544
(lp545
S'juniper berries'
p546
aS'oven-ready partridges'
p547
aS'salt and freshly ground black pepper'
p548
aS'butter'
p549
aS'sunflower oil'
p550
aS'medium onion'
p551
aS'rashers rindless streaky bacon'
p552
aS'bushy sprigs fresh thyme'
p553
aS'plain flour'
p554
aS'dry gin'
p555
aS'orange juice (about large orange)'
p556
aS'red wine'
p557
aS'chicken stock'
p558
aS'cranberry sauce or redcurrant jelly'
p559
aS'finely grated orange zest'
p560
aS'cooked and peeled chestnuts'
p561
aS'medium Savoy cabbage'
p562
atp563
tp564
Rp565
sS'Gazpacho'
p566
g2
(g3
g4
(S'http://www.bbc.co.uk/food/recipes/gazpacho_92065'
p567
S'Gordon Jones'
p568
(lp569
S'ripe tomatoes'
p570
aS'green pepper, seeds removed'
p571
aS'small red onion or spring onions'
p572
aS'cucumber'
p573
aS'large cloves garlic'
p574
aS'small fresh basil leaves'
p575
aS'extra virgin olive oil'
p576
aS'sherry vinegar'
p577
aS'salt and freshly ground black pepper'
p578
aS'day-old baguette'
p579
aS'olive oil'
p580
aS'paprika'
p581
aS'ice cubes'
p582
aS'salt and freshly ground black pepper'
p583
aS'spring onions or red onion'
p584
aS'red pepper, seeds removed'
p585
aS'yellow pepper, seeds removed'
p586
aS'fresh basil leaves'
p587
atp588
tp589
Rp590
sS'Salt marsh lamb, samphire and broad beans, with balsamic meat juices'
p591
g2
(g3
g4
(S'http://www.bbc.co.uk/food/recipes/saltmarshlambsamphir_89242'
p592
S'Matt Tebbutt'
p593
(lp594
S'x salt marsh lamb rump steaks'
p595
aS'olive oil'
p596
aS'unsalted butter'
p597
aS'rock samphire'
p598
aS'young broad beans, removed from their pods'
p599
aS'salt and freshly ground black pepper'
p600
aS'banana shallot'
p601
aS'garlic clove'
p602
aS'flatleaf parsley'
p603
aS'balsamic vinegar'
p604
aS'strong lamb or veal stock'
p605
atp606
tp607
Rp608
sS'Roasted pumpkin soup'
p609
g2
(g3
g4
(S'http://www.bbc.co.uk/food/recipes/roasted_pumpkin_soup_59746'
p610
S'Tom Kitchin'
p611
(lp612
S'trimmings and skin from the pumpkin (see below)'
p613
aS'pints chicken stock or vegetable stock'
p614
aS'onion'
p615
aS'parsley stalks'
p616
aS'sprigs fresh thyme'
p617
aS'cinnamon stick'
p618
aS'head garlic'
p619
aS'celery sticks'
p620
aS'carrots'
p621
aS'acorn squash'
p622
aS'olive oil'
p623
aS'salt and freshly ground black pepper'
p624
aS'pumpkin, stalk and skin removed and reserved, seeds removed and reserved'
p625
aS'vegetable oil'
p626
aS'onion'
p627
aS'ground cinnamon'
p628
aS'butter'
p629
aS'caraway seeds'
p630
aS'clear honey'
p631
aS'double cream'
p632
aS'olive oil'
p633
aS'seeds from the pumpkin (see above)'
p634
aS'ground cinnamon'
p635
aS'rashers pancetta'
p636
aS'creme fraiche'
p637
aS'chopped fresh chives'
p638
atp639
tp640
Rp641
sS'One-step no-churn coffee ice cream'
p642
g2
(g3
g4
(S'http://www.bbc.co.uk/food/recipes/one-step_no-churn_coffee_88525'
p643
S'Nigella Lawson'
p644
(lp645
S'double cream'
p646
aS'condensed milk'
p647
aS'instant espresso powder'
p648
aS'espresso liqueur (or coffee liqueur)'
p649
atp650
tp651
Rp652
sS'Pauls kransekake'
p653
g2
(g3
g4
(S'http://www.bbc.co.uk/food/recipes/pauls_kransekake_83354'
p654
S'Paul Hollywood'
p655
(lp656
S'ground almonds'
p657
aS'icing sugar'
p658
aS'free-range egg whites'
p659
aS'almond extract'
p660
aS'vegetable oil'
p661
aS'semolina'
p662
aS'plain flour'
p663
aS'free-range egg whites'
p664
aS'icing sugar'
p665
aS'few drops red food colouring'
p666
aS'red'
p667
atp668
tp669
Rp670
sS'Sprouts with chestnuts and pancetta'
p671
g2
(g3
g4
(S'http://www.bbc.co.uk/food/recipes/sprouts_with_chestnuts_87565'
p672
S'Mary Berry'
p673
(lp674
S'small Brussels sprouts'
p675
aS'butter'
p676
aS'thinly sliced pancetta'
p677
aS'onion'
p678
aS'frozen chestnuts'
p679
aS'salt and freshly ground black pepper'
p680
atp681
tp682
Rp683
sS'Bubble and squeak patties'
p684
g2
(g3
g4
(S'http://www.bbc.co.uk/food/recipes/bubble_and_squeak_05843'
p685
S'Nigel Slater'
p686
(lp687
S'a of leftover roast parsnips or roast potatoes'
p688
aS'a of leftover Brussels sprouts'
p689
aS'salt and black pepper'
p690
aS'a of crumbled goats cheese'
p691
aS'plain flour'
p692
aS'a little vegetable oil'
p693
aS'tomato or onion chutney (preferably homemade)'
p694
atp695
tp696
Rp697
sS'Turkey salad with Chinese cabbage, beansprouts and Vietnamese mint'
p698
g2
(g3
g4
(S'http://www.bbc.co.uk/food/recipes/turkeysaladwithchine_92947'
p699
S'Rick Stein'
p700
(lp701
S'shallots, peeled'
p702
aS'salt'
p703
aS'cold, cooked leftover turkey meat'
p704
aS'Chinese cabbage, core removed'
p705
aS'beansprouts'
p706
aS'large carrot, peeled, cut in half'
p707
aS'Vietnamese mint leaves (available from some Asian grocers), or a mixture of coriander and mint or Thai sweet basil leaves'
p708
aS'roasted peanuts, coarsely chopped'
p709
aS'freshly ground black pepper'
p710
aS'fish sauce (nam pla)'
p711
aS'freshly squeezed lime juice'
p712
aS'rice vinegar'
p713
aS'caster sugar'
p714
aS'very finely chopped garlic'
p715
aS"red bird's-eye chillies"
p716
atp717
tp718
Rp719
sS'French apple tart with calvados and Chantilly cream'
p720
g2
(g3
g4
(S'http://www.bbc.co.uk/food/recipes/french_apple_tart_with_70368'
p721
S'Michel Roux Jr.'
p722
(lp723
S'ready-made puff pastry'
p724
aS'stewed apple'
p725
aS'apples (Cox or Granny Smith), peeled'
p726
aS'caster sugar'
p727
aS'butter'
p728
aS'free-range egg yolk'
p729
aS'double cream'
p730
aS'icing sugar'
p731
aS'vanilla pod'
p732
aS'splash calvados'
p733
atp734
tp735
Rp736
sS'Pappardelle with Italian sausages and kale'
p737
g2
(g3
g4
(S'http://www.bbc.co.uk/food/recipes/pappardelle_with_italian_76302'
p738
S'The Hairy Bikers'
p739
(lp740
S'olive oil'
p741
aS'garlic clove'
p742
aS'Italian-style sausages'
p743
aS'chilli flakes'
p744
aS'white wine'
p745
aS'kale or other greens, tough stalks removed'
p746
aS'double cream'
p747
aS'sea salt and freshly ground black pepper'
p748
aS'fresh pappardelle pasta'
p749
aS'olive oil'
p750
aS'chopped fresh parsley'
p751
aS'parmesan'
p752
atp753
tp754
Rp755
sS'Buckwheat and butternut cupcakes with tahini maple icing'
p756
g2
(g3
g4
(S'http://www.bbc.co.uk/food/recipes/buckwheat_and_butternut_60078'
p757
S'Hemsley + Hemsley'
p758
(lp759
S'cooked butternut squash'
p760
aS'buckwheat flour'
p761
aS'ground cinnamon'
p762
aS'coconut oil'
p763
aS'maple syrup'
p764
aS'vanilla extract'
p765
aS'baking powder'
p766
aS'apple cider vinegar'
p767
aS'maple syrup'
p768
aS'coconut oil'
p769
aS'tahini'
p770
aS'vanilla extract'
p771
aS'dried edible rose petals or grated vegan chocolate'
p772
atp773
tp774
Rp775
sS'Roasted duck with quick gooseberry jam'
p776
g2
(g3
g4
(S'http://www.bbc.co.uk/food/recipes/roasted_duck_with_quick_75506'
p777
S'Jason Atherton'
p778
(lp779
S'fresh gooseberries, washed'
p780
aS'sugar'
p781
aS'elderflower buds (optional)'
p782
aS'star anise'
p783
aS'cinnamon stick'
p784
aS'white wine'
p785
aS'duck breasts'
p786
aS'broccoli'
p787
atp788
tp789
Rp790
sS'Redcurrant and mint jelly'
p791
g2
(g3
g4
(S'http://www.bbc.co.uk/food/recipes/redcurrant_and_mint_64246'
p792
S'Jo Wesley and Avril Rogers'
p793
(lp794
S'redcurrants'
p795
aS'mint'
p796
aS'sugar'
p797
aS'lemon'
p798
aS'mint leaves'
p799
atp800
tp801
Rp802
sS"Mincemeat and marzipan couronne ('crown')"
p803
g2
(g3
g4
(S'http://www.bbc.co.uk/food/recipes/pauls_mincemeat_and_33176'
p804
S'Paul Hollywood'
p805
(lp806
S'strong white bread flour'
p807
aS'salt'
p808
aS'instant yeast'
p809
aS'unsalted butter, softened'
p810
aS'whole milk'
p811
aS'free-range egg'
p812
aS'caster sugar'
p813
aS'icing sugar'
p814
aS'ground almonds'
p815
aS'orange'
p816
aS'free-range egg'
p817
aS'ready-made mincemeat'
p818
aS'apricot jam'
p819
aS'icing sugar'
p820
aS'pistachios'
p821
aS'glace cherries'
p822
atp823
tp824
Rp825
sS'Walnut Bakewell tart with roasted medlars'
p826
g2
(g3
g4
(S'http://www.bbc.co.uk/food/recipes/walnutbakewelltartwi_87482'
p827
S'James Martin'
p828
(lp829
S'packet ready-made sweet shortcrust pastry'
p830
aS'butter'
p831
aS'caster sugar'
p832
aS'free-range eggs'
p833
aS'ground walnuts'
p834
aS'breadcrumbs'
p835
aS'damson jam'
p836
aS'walnut halves'
p837
aS'double cream'
p838
aS'butter'
p839
aS'medlars'
p840
aS'caster sugar'
p841
aS'cinnamon stick'
p842
atp843
tp844
Rp845
sS'Creamed Brussels sprouts'
p846
g2
(g3
g4
(S'http://www.bbc.co.uk/food/recipes/creamedbrusselssprou_84835'
p847
S'Richard Corrigan'
p848
(lp849
S'Brussels sprouts'
p850
aS'rashers cured bacon'
p851
aS'double cream'
p852
aS'garlic cloves'
p853
aS'salt and freshly ground black pepper'
p854
atp855
tp856
Rp857
sS'Salmon and watercress tart'
p858
g2
(g3
g4
(S'http://www.bbc.co.uk/food/recipes/salmon_and_watercress_05414'
p859
S'Nigel Slater'
p860
(lp861
S'plain flour'
p862
aS'butter, cut into small pieces'
p863
aS'free-range egg yolk'
p864
aS'a little water'
p865
aS'salmon fillet'
p866
aS'a little butter or groundnut oil'
p867
aS'salt and black pepper'
p868
aS'large handfuls watercress'
p869
aS'free-range eggs'
p870
aS'double cream'
p871
atp872
tp873
Rp874
sS'Strawberry jam millefeuille'
p875
g2
(g3
g4
(S'http://www.bbc.co.uk/food/recipes/strawberry_jam_18761'
p876
S'The Hairy Bikers'
p877
(lp878
S'fresh strawberries'
p879
aS'fresh lemon juice'
p880
aS'jam sugar (with added pectin)'
p881
aS'large free-range egg yolks'
p882
aS'caster sugar'
p883
aS'plain flour'
p884
aS'cornflour'
p885
aS'semi-skimmed milk'
p886
aS'vanilla pod'
p887
aS'double cream'
p888
aS'block puff pastry'
p889
aS'icing sugar for dusting'
p890
aS'icing sugar'
p891
aS'fresh lemon juice'
p892
aS'cocoa powder'
p893
atp894
tp895
Rp896
sS'Arancini with deep-fried courgette flowers'
p897
g2
(g3
g4
(S'http://www.bbc.co.uk/food/recipes/arancini_with_deep-fried_05270'
p898
S'James Martin'
p899
(lp900
S'vegetable oil'
p901
aS'serrano or Parma ham'
p902
aS'grated parmesan'
p903
aS'approximately leftover chilled cooked risotto'
p904
aS'plain flour'
p905
aS'free-range eggs'
p906
aS'fresh breadcrumbs'
p907
aS'cornflour'
p908
aS'sparkling water'
p909
aS'courgette flowers'
p910
aS'lemon'
p911
atp912
tp913
Rp914
sS'Fettuccine with purple sprouting broccoli'
p915
g2
(g3
g4
(S'http://www.bbc.co.uk/food/recipes/fettuccinewithpurple_67561'
p916
S'James Martin'
p917
(lp918
S'onion'
p919
aS'organic garlic clove'
p920
aS'anchovy fillets'
p921
aS'capers'
p922
aS'rosemary leaves'
p923
aS'chopped flat leaf parsley'
p924
aS'extra virgin olive oil'
p925
aS'purple sprouting broccoli'
p926
aS'fresh fettuccine'
p927
aS'lemon'
p928
aS'salt and freshly ground black pepper'
p929
aS'parmesan shavings'
p930
atp931
tp932
Rp933
sS'Strawberry and cream lollies'
p934
g2
(g3
g4
(S'http://www.bbc.co.uk/food/recipes/strawberry_and_cream_84929'
p935
S'Sandra'
p936
(lp937
S'single cream'
p938
aS'vanilla pod'
p939
aS'strawberries'
p940
aS'icing sugar'
p941
aS'full-fat Greek-style yoghurt'
p942
aS'lavender flowers'
p943
atp944
tp945
Rp946
sS'Trout with samphire and beurre blanc'
p947
g2
(g3
g4
(S'http://www.bbc.co.uk/food/recipes/troutwithsamphireand_91865'
p948
S'Valentine Warner'
p949
(lp950
S'chilled unsalted butter'
p951
aS'medium shallots, peeled'
p952
aS'garlic clove, peeled'
p953
aS'fresh thyme'
p954
aS'small bay leaf'
p955
aS'black peppercorns'
p956
aS'dry white wine'
p957
aS'white wine vinegar'
p958
aS'sea salt flakes'
p959
aS'freshly squeezed lemon juice'
p960
aS'plain flour'
p961
aS'salt and freshly ground black pepper'
p962
aS'sunflower oil'
p963
aS'x thick-cut brown or rainbow trout fillets'
p964
aS'handfuls marsh samphire, rinsed thoroughly, tough stems removed'
p965
aS'butter'
p966
aS'freshly squeezed lemon juice'
p967
aS'salt and freshly ground black pepper'
p968
atp969
tp970
Rp971
sS'Courgetti spaghetti with tomato and butter bean pesto'
p972
g2
(g3
g4
(S'http://www.bbc.co.uk/food/recipes/courgetti_spaghetti_with_07741'
p973
S'Hemsley + Hemsley'
p974
(lp975
S'tin butter beans'
p976
aS'fat garlic cloves'
p977
aS'sun-dried tomatoes'
p978
aS'fresh basil'
p979
aS'lemon juice'
p980
aS'chilli flakes'
p981
aS'salt and freshly ground black pepper'
p982
aS'courgettes'
p983
aS'large ripe avocados, skin and seeds removed'
p984
aS'red chilli, chopped'
p985
aS'extra virgin olive oil'
p986
atp987
tp988
Rp989
sS'Cardamom and beetroot smoothie sundae'
p990
g2
(g3
g4
(S'http://www.bbc.co.uk/food/recipes/cardamom_and_beetroot_04997'
p991
S'Hemsley + Hemsley'
p992
(lp993
S'young beetroot (approximately'
p994
aS'coconut milk'
p995
aS'ripe banana'
p996
aS'cardamom seeds (see tips)'
p997
aS'ice cubes'
p998
aS'vanilla extract'
p999
aS'tiny sea salt'
p1000
aS'freshly squeezed lemon juice'
p1001
aS'cacao nibs or sesame seeds'
p1002
atp1003
tp1004
Rp1005
sS'Buttermilk pannacotta with lemon-roasted apricots'
p1006
g2
(g3
g4
(S'http://www.bbc.co.uk/food/recipes/buttermilkpancottawi_83904'
p1007
S'Paul Rankin'
p1008
(lp1009
S'double cream'
p1010
aS'split vanilla pod'
p1011
aS'condensed milk'
p1012
aS'gelatine leaves'
p1013
aS'buttermilk'
p1014
aS'ripe apricots'
p1015
aS'lemon'
p1016
aS'orange'
p1017
aS'pieces of lemon peel'
p1018
aS'sugar'
p1019
aS'biscotti'
p1020
atp1021
tp1022
Rp1023
sS'Slow-braised breast of lamb with artichoke puree and purple sprouting broccoli'
p1024
g2
(g3
g4
(S'http://www.bbc.co.uk/food/recipes/skrecipe_90494'
p1025
S'Galton Blackiston'
p1026
(lp1027
S'olive oil'
p1028
aS'butter'
p1029
aS'breast of lamb, taken off the bone'
p1030
aS'salt and freshly ground black pepper'
p1031
aS'onion'
p1032
aS'carrots'
p1033
aS'leek'
p1034
aS'bulb garlic'
p1035
aS'fresh rosemary'
p1036
aS'pints chicken stock, or vegetable stock'
p1037
aS'capers'
p1038
aS'fresh parsley'
p1039
aS'double cream'
p1040
aS'Jerusalem artichokes'
p1041
aS'lemon'
p1042
aS'butter'
p1043
aS'double cream'
p1044
aS'freshly ground nutmeg'
p1045
aS'purple sprouting broccoli'
p1046
atp1047
tp1048
Rp1049
sS'Rhubarb, redcurrant and vanilla jam'
p1050
g2
(g3
g4
(S'http://www.bbc.co.uk/food/recipes/rhubarb_redcurrant_and_87772'
p1051
S'Alan'
p1052
(lp1053
S'redcurrants'
p1054
aS'rhubarb, trimmed'
p1055
aS'vanilla pod'
p1056
aS'granulated sugar'
p1057
aS'small lemon'
p1058
atp1059
tp1060
Rp1061
sS'Grilled rack of lamb with mango salad and mint chutney'
p1062
g2
(g3
g4
(S'http://www.bbc.co.uk/food/recipes/grilledrackoflambwit_86209'
p1063
S'Atul Kochhar'
p1064
(lp1065
S'finely chopped raw papaya'
p1066
aS'finely chopped garlic'
p1067
aS'finely chopped green chilli'
p1068
aS'ground fennel seeds'
p1069
aS'freshly ground black pepper'
p1070
aS'sweet paprika'
p1071
aS'mustard oil (available from some supermarkets and Asian grocers)'
p1072
aS'single cream'
p1073
aS'double cream'
p1074
aS'gram flour (also called chickpea flour'
p1075
aS'pastis'
p1076
aS'nutmeg'
p1077
aS'salt'
p1078
aS'x racks of lamb'
p1079
aS'butter'
p1080
aS'fresh mint leaves'
p1081
aS'finely chopped red onion'
p1082
aS'lemon juice'
p1083
aS'green chilli, seeds removed'
p1084
aS'salt'
p1085
aS'vegetable oil'
p1086
aS'Greek-style yoghurt'
p1087
aS'green mangoes'
p1088
aS'small fresh coriander'
p1089
aS'watercress'
p1090
aS'piece root ginger'
p1091
aS'toasted cumin seeds'
p1092
aS'lime juice'
p1093
aS'olive oil'
p1094
aS'sugar'
p1095
atp1096
tp1097
Rp1098
sS'Pigeons baked in a salt pastry crust with cabbage and mushroom fricassee'
p1099
g2
(g3
g4
(S'http://www.bbc.co.uk/food/recipes/pigeonsbakedinasaltp_93491'
p1100
S'Raymond Blanc'
p1101
(lp1102
S'squab pigeons, cleaned'
p1103
aS'clarified butter'
p1104
aS'strong white flour'
p1105
aS'fine table salt'
p1106
aS'free-range egg whites'
p1107
aS'water'
p1108
aS'cloves'
p1109
aS'free-range egg yolks'
p1110
aS'milk'
p1111
aS'caster sugar'
p1112
aS'rock salt'
p1113
aS'unsalted butter'
p1114
aS'shallots'
p1115
aS'button mushrooms'
p1116
aS'olive oil'
p1117
aS'reserved pigeon squab necks and wings (see above)'
p1118
aS'dry Madeira wine'
p1119
aS'brown chicken stock'
p1120
aS'salt and freshly ground black pepper'
p1121
aS'pointed cabbages'
p1122
aS'unsalted butter'
p1123
aS'banana shallot or onion, peeled'
p1124
aS'garlic clove, peeled'
p1125
aS'mixed wild mushrooms (pied de mouton, girolle'
p1126
aS'dry white wine'
p1127
aS'fresh flat-leaf parsley leaves'
p1128
aS'lemon juice'
p1129
aS'pinches sea salt'
p1130
aS'pinches freshly ground black pepper'
p1131
aS'Special equipment: kitchen string'
p1132
atp1133
tp1134
Rp1135
sS'Wild mushroom soup'
p1136
g2
(g3
g4
(S'http://www.bbc.co.uk/food/recipes/wildmushroomsoup_11367'
p1137
S'Michael Caines'
p1138
(lp1139
S'shallots'
p1140
aS'butter'
p1141
aS'of salt'
p1142
aS'wild mushrooms'
p1143
aS'pint water'
p1144
aS'pint chicken stock'
p1145
aS'salt and freshly ground black pepper'
p1146
aS'butter'
p1147
aS'wild mushrooms'
p1148
aS'of hazelnuts'
p1149
atp1150
tp1151
Rp1152
sS'Spiced potted shrimp with cucumber salad'
p1153
g2
(g3
g4
(S'http://www.bbc.co.uk/food/recipes/spiced_potted_shrimp_77214'
p1154
S'Glynn Purnell'
p1155
(lp1156
S'clarified butter'
p1157
aS'ground ginger'
p1158
aS'hot chilli powder'
p1159
aS'smoked paprika'
p1160
aS'mild curry powder'
p1161
aS'garam masala'
p1162
aS'fresh boiled shrimps'
p1163
aS'light olive oil'
p1164
aS'splash white wine vinegar'
p1165
aS'cucumber, peeled, cut in half lengthways, seeds scooped out using a spoon'
p1166
aS'salt and white pepper'
p1167
aS'medium slices white bread'
p1168
aS'small fresh coriander shoots'
p1169
atp1170
tp1171
Rp1172
sS'Pears poached in cardamom, cinnamon and chilli syrup with salted caramel sauce'
p1173
g2
(g3
g4
(S'http://www.bbc.co.uk/food/recipes/pears_poached_in_75989'
p1174
S'The Hairy Bikers'
p1175
(lp1176
S'pints pear cider'
p1177
aS'golden caster sugar'
p1178
aS'piece fresh root ginger'
p1179
aS'cloves'
p1180
aS'large cinnamon stick'
p1181
aS"small red birds'-eye chilli"
p1182
aS'cardamom pods'
p1183
aS'vanilla pod, split in half'
p1184
aS'firm Williams or Comice pears, peeled'
p1185
aS'whipping cream'
p1186
aS'sea salt crystals'
p1187
atp1188
tp1189
Rp1190
sS'Watermelon cooler'
p1191
g2
(g3
g4
(S'http://www.bbc.co.uk/food/recipes/watermelon_cooler_57906'
p1192
S'Neil Strawson and Richard Hunt'
p1193
(lp1194
S'watermelon, peeled'
p1195
aS'lemon'
p1196
aS'fresh mint leaves'
p1197
atp1198
tp1199
Rp1200
sS'Eggnog'
p1201
g2
(g3
g4
(S'http://www.bbc.co.uk/food/recipes/eggnog_51305'
p1202
S'Wayne Collins'
p1203
(lp1204
S'free-range eggs'
p1205
aS'caster sugar'
p1206
aS'bruised bay leaves'
p1207
aS'ground allspice'
p1208
aS'vanilla syrup'
p1209
aS'golden rum'
p1210
aS'cognac'
p1211
aS'full-fat milk'
p1212
aS'freshly grated nutmeg'
p1213
atp1214
tp1215
Rp1216
sS'Watercress and pea soup'
p1217
g2
(g3
g4
(S'http://www.bbc.co.uk/food/recipes/watercress_and_pea_soup_72980'
p1218
S'James Martin'
p1219
(lp1220
S'flatleaf parsley'
p1221
aS'fresh watercress'
p1222
aS'butter'
p1223
aS'shallot, peeled'
p1224
aS'garlic cloves, peeled'
p1225
aS'frozen peas (shelled weight)'
p1226
aS'pints hot vegetable stock'
p1227
aS'double cream'
p1228
aS'salt and freshly ground black pepper'
p1229
aS'fresh pea shoots'
p1230
aS'baby watercress'
p1231
aS'handfuls croutons (optional)'
p1232
aS'rashers cooked streaky bacon'
p1233
aS'drizzle olive oil'
p1234
atp1235
tp1236
Rp1237
sS'Mussels and cider'
p1238
g2
(g3
g4
(S'http://www.bbc.co.uk/food/recipes/mussels_and_cider_34415'
p1239
S'Nigel Slater'
p1240
(lp1241
S'glug of olive oil'
p1242
aS'a medium-sized onion'
p1243
aS'a fresh bay leaf'
p1244
aS'whole black peppercorns'
p1245
aS'cloves of garlic, whole'
p1246
aS'x bag of mussels'
p1247
aS'medium or dry cider'
p1248
aS'crusty bread'
p1249
atp1250
tp1251
Rp1252
sS'Roast loin of lamb, peas, lettuce and bacon'
p1253
g2
(g3
g4
(S'http://www.bbc.co.uk/food/recipes/roast_loin_of_lamb_peas_19776'
p1254
S'Bryn Williams'
p1255
(lp1256
S'loins of lamb, boned'
p1257
aS'salt and freshly ground black pepper'
p1258
aS'vegetable oil'
p1259
aS'rashers smoked streaky bacon'
p1260
aS'onion'
p1261
aS'lamb stock'
p1262
aS'peas'
p1263
aS'butter'
p1264
aS'Little Gem lettuce'
p1265
aS'mint'
p1266
atp1267
tp1268
Rp1269
sS'Rooibos sponge cake with quince jam and vanilla saffron icing'
p1270
g2
(g3
g4
(S'http://www.bbc.co.uk/food/recipes/rooibos_sponge_cake_with_62311'
p1271
S'Tim Anderson'
p1272
(lp1273
S'butter, at room temperature, cut into cubes'
p1274
aS'caster sugar'
p1275
aS'free-range eggs'
p1276
aS'self-raising flour'
p1277
aS'rooibos tea leaves'
p1278
aS'quinces, peeled'
p1279
aS'water'
p1280
aS'lemon'
p1281
aS'caster sugar'
p1282
aS'pectin'
p1283
aS'vanilla beans'
p1284
aS'strands saffron'
p1285
aS'clotted cream'
p1286
aS'whipping cream'
p1287
aS'icing sugar'
p1288
atp1289
tp1290
Rp1291
sS'Twice-cooked braised horseradish rib-eye steaks with crispy onions'
p1292
g2
(g3
g4
(S'http://www.bbc.co.uk/food/recipes/twice-cooked_braised_66810'
p1293
S'Brian Turner'
p1294
(lp1295
S'x rib-eye steaks (ideally all cut from the same piece of rib-eye by your butcher)'
p1296
aS'x bottle red wine'
p1297
aS'fresh thyme'
p1298
aS'rapeseed oil'
p1299
aS'carrots'
p1300
aS'celery sticks'
p1301
aS'large onion'
p1302
aS'garlic cloves'
p1303
aS'ripe tomatoes'
p1304
aS'Worcestershire sauce'
p1305
aS'pints chicken stock'
p1306
aS'creamed horseradish'
p1307
aS'butter'
p1308
aS'chopped fresh parsley'
p1309
aS'vegetable oil'
p1310
aS'plain flour'
p1311
aS'smoked paprika'
p1312
aS'pint full-fat milk'
p1313
aS'onions'
p1314
aS'new potatoes'
p1315
aS'butter'
p1316
aS'salt and freshly ground black pepper'
p1317
atp1318
tp1319
Rp1320
sS'Blood orange tart'
p1321
g2
(g3
g4
(S'http://www.bbc.co.uk/food/recipes/bloodorangetart_93766'
p1322
S'Simon Rimmer'
p1323
(lp1324
S'sugar'
p1325
aS'blood oranges'
p1326
aS'orange blossom water'
p1327
aS'free-range eggs'
p1328
aS'butter'
p1329
aS'sweetened shortcrust pastry tart shell'
p1330
aS'blood oranges, peeled'
p1331
aS'demerara sugar'
p1332
aS'double cream or custard'
p1333
atp1334
tp1335
Rp1336
sS'Greengage smash'
p1337
g2
(g3
g4
(S'http://www.bbc.co.uk/food/recipes/greengagesmash_92197'
p1338
S'Wayne Collins'
p1339
(lp1340
S'large greengages, cut into quarters'
p1341
aS'fresh mint leaves'
p1342
aS'freshly squeezed lime juice'
p1343
aS'plum jam'
p1344
aS'orange-flavoured vodka'
p1345
aS'Riesling wine'
p1346
aS'crushed ice'
p1347
atp1348
tp1349
Rp1350
sS'Crab rarebit with fries and a Little Gem salad'
p1351
g2
(g3
g4
(S'http://www.bbc.co.uk/food/recipes/cromercrabrarebitwit_87267'
p1352
S'James Martin'
p1353
(lp1354
S'small whole crabs'
p1355
aS'Montgomery cheddar cheese'
p1356
aS'milk'
p1357
aS'breadcrumbs'
p1358
aS'flour'
p1359
aS'of Worcestershire sauce'
p1360
aS'free-range egg'
p1361
aS'free-range egg yolk'
p1362
aS'English mustard powder'
p1363
aS'butter'
p1364
aS'salt and freshly ground black pepper'
p1365
aS'vegetable oil'
p1366
aS'large chipping potatoes'
p1367
aS'Little Gem lettuces'
p1368
aS'extra virgin olive oil'
p1369
aS'lemon'
p1370
atp1371
tp1372
Rp1373
sS'Chestnut, leek and mushroom tartlets'
p1374
g2
(g3
g4
(S'http://www.bbc.co.uk/food/recipes/chestnutleekandmushr_66048'
p1375
S'The Vegetarian Society'
p1376
(lp1377
S'ready-made puff pastry (thawed if frozen)'
p1378
aS'wild rice'
p1379
aS'olive oil'
p1380
aS'vegan margarine'
p1381
aS'leeks'
p1382
aS'oyster mushrooms'
p1383
aS'packed cooked and peeled chestnuts'
p1384
aS'sprigs fresh rosemary, leaves only'
p1385
aS'fresh sage'
p1386
aS'salt and freshly ground black pepper'
p1387
aS'soy sauce'
p1388
atp1389
tp1390
Rp1391
sS'Pan-fried Jersey sea bass and grilled oysters with seasonal vegetables'
p1392
g2
(g3
g4
(S'http://www.bbc.co.uk/food/recipes/pan-fried_jersey_sea_54788'
p1393
S'The Cotton and Garland family'
p1394
(lp1395
S'Jersey Royal potatoes'
p1396
aS'sprigs fresh mint leaves'
p1397
aS'butter'
p1398
aS''
p1399
aS'sea bass fillets'
p1400
aS'sea salt and freshly ground black pepper'
p1401
aS'olive oil'
p1402
aS'lemon'
p1403
ag1399
aS'thick slice pancetta or thick-cut smoky bacon'
p1404
aS'fresh oysters, shells scrubbed clean'
p1405
aS'good-quality chicken stock'
p1406
aS'dry white wine.'
p1407
aS'lemon'
p1408
aS'olive oil'
p1409
aS'chopped fresh tarragon leaves'
p1410
aS'fresh dill'
p1411
aS'mangetout'
p1412
aS'sugar'
p1413
aS'sea salt'
p1414
atp1415
tp1416
Rp1417
sS'Christmas Genoa cake'
p1418
g2
(g3
g4
(S'http://www.bbc.co.uk/food/recipes/marys_christmas_genoa_32386'
p1419
S'Mary Berry'
p1420
(lp1421
S'red or natural (uncoloured) glace cherries, rinsed'
p1422
aS'tinned pineapple in pineapple juice, drained'
p1423
aS'ready-to-eat dried apricots'
p1424
aS'blanched almonds'
p1425
aS'lemons'
p1426
aS'sultanas'
p1427
aS'unsalted butter, softened'
p1428
aS'caster sugar'
p1429
aS'large free-range eggs'
p1430
aS'self-raising flour'
p1431
aS'ground almonds'
p1432
aS'small blanched whole almonds'
p1433
aS'small walnut halves'
p1434
aS'small red or natural (uncoloured) glace cherries'
p1435
aS'whole orange peel (available from health-food shops)'
p1436
aS'apricot jam'
p1437
atp1438
tp1439
Rp1440
sS'Escalope of chicken with rocket, sage and lemon'
p1441
g2
(g3
g4
(S'http://www.bbc.co.uk/food/recipes/escalopeofchickenwit_92046'
p1442
S'Paul Merrett'
p1443
(lp1444
S'boneless chicken breasts'
p1445
aS'fresh sage leaves'
p1446
aS'black peppercorns'
p1447
aS'plain flour'
p1448
aS'free-range eggs'
p1449
aS'milk'
p1450
aS'fresh breadcrumbs'
p1451
aS'unsalted butter'
p1452
aS'lemon'
p1453
aS'olive oil'
p1454
aS'splash balsamic vinegar'
p1455
aS'wild rocket leaves'
p1456
aS'freshly grated parmesan'
p1457
atp1458
tp1459
Rp1460
sS'Roasted pork loin with chilli and watercress crust'
p1461
g2
(g3
g4
(S'http://www.bbc.co.uk/food/recipes/roasted_pork_loin_with_21119'
p1462
S'James Martin'
p1463
(lp1464
S'panko breadcrumbs (available from specialist Japanese delis and some supermarkets)'
p1465
aS'large fresh watercress'
p1466
aS'sprigs fresh flatleaf parsley'
p1467
aS'salt'
p1468
aS'cracked black pepper'
p1469
aS'x pork loins'
p1470
aS'salt and freshly ground black pepper'
p1471
aS'olive oil'
p1472
aS'sweet chilli dipping sauce'
p1473
aS'rice wine vinegar'
p1474
aS'sugar'
p1475
aS'salt'
p1476
aS'white turnip, peeled'
p1477
aS'cucumber, cut in half lengthways, seeds scooped out using a spoon'
p1478
aS'shallot, peeled'
p1479
aS'small radishes'
p1480
aS'baby watercress leaves'
p1481
aS'small punnet baby coriander cress'
p1482
aS'drizzle extra virgin olive oil'
p1483
atp1484
tp1485
Rp1486
sS'Borscht'
p1487
g2
(g3
g4
(S'http://www.bbc.co.uk/food/recipes/borscht_05905'
p1488
S'Kristina Rhianoff'
p1489
(lp1490
S'beef mince'
p1491
aS'potatoes'
p1492
aS'white cabbage'
p1493
aS'vegetable oil'
p1494
aS'carrots'
p1495
aS'medium raw beetroots'
p1496
aS'onions'
p1497
aS'red peppers, seeds removed'
p1498
aS'tomato puree'
p1499
aS'lemon'
p1500
aS'chopped dill'
p1501
aS'sea salt and freshly ground black pepper'
p1502
aS'creme fraiche'
p1503
ag1399
atp1504
tp1505
Rp1506
sS'Marinated prawns with roasted lemon mayonnaise and asparagus'
p1507
g2
(g3
g4
(S'http://www.bbc.co.uk/food/recipes/marinated_prawns_with_15688'
p1508
S'James Martin'
p1509
(lp1510
S'large raw king prawns'
p1511
aS'red chilli'
p1512
aS'lemon'
p1513
aS'garlic cloves'
p1514
aS'olive oil'
p1515
aS'chopped fresh coriander'
p1516
aS'asparagus spears'
p1517
aS'watercress'
p1518
aS'lemons'
p1519
aS'free-range egg yolks'
p1520
aS'white wine vinegar'
p1521
aS'dijon mustard'
p1522
aS'rapeseed oil or light olive oil'
p1523
atp1524
tp1525
Rp1526
sS"Shepherd's pie with spiced parsnip mash"
p1527
g2
(g3
g4
(S'http://www.bbc.co.uk/food/recipes/shepherdspiewithspic_83899'
p1528
S'Nigel Slater'
p1529
(lp1530
S'large parsnips'
p1531
aS'onions'
p1532
aS'butter'
p1533
aS'large ground cumin'
p1534
aS'freshly ground coriander seeds'
p1535
aS'garam masala'
p1536
aS'about butter'
p1537
aS'salt and freshly ground black pepper'
p1538
aS'leeks or onions'
p1539
aS'carrot'
p1540
aS'dripping or butter'
p1541
aS'Italian brown mushrooms'
p1542
aS'cooked roast lamb, minced'
p1543
aS'flour'
p1544
aS'tomato puree'
p1545
aS'hot lamb or chicken stock'
p1546
aS'bay leaf'
p1547
aS'thyme'
p1548
aS'Worcestershire sauce'
p1549
atp1550
tp1551
Rp1552
sS'Gluten-free Venetian carrot cake'
p1553
g2
(g3
g4
(S'http://www.bbc.co.uk/food/recipes/gluten-free_and_11807'
p1554
S'Nigella Lawson'
p1555
(lp1556
S'pine nuts'
p1557
aS'medium carrots (approx.'
p1558
aS'golden sultanas'
p1559
aS'rum'
p1560
aS'caster sugar'
p1561
aS'regular olive oil'
p1562
aS'vanilla extract'
p1563
aS'free-range eggs'
p1564
aS'ground almonds'
p1565
aS'ground nutmeg'
p1566
aS'lemon'
p1567
aS'mascarpone'
p1568
aS'icing sugar'
p1569
aS'rum'
p1570
atp1571
tp1572
Rp1573
sS'The Elizabeth'
p1574
g2
(g3
g4
(S'http://www.bbc.co.uk/food/recipes/theelizabeth_86502'
p1575
S'Andy Pearson'
p1576
(lp1577
S'gooseberries'
p1578
aS'white sugar'
p1579
aS'gin'
p1580
aS'elderflower cordial'
p1581
aS'lime juice'
p1582
aS'traditional cloudy lemonade'
p1583
aS'gooseberries and fresh elderflowers'
p1584
atp1585
tp1586
Rp1587
sS'Cinnamon plums with French toast'
p1588
g2
(g3
g4
(S'http://www.bbc.co.uk/food/recipes/cinnamon_plums_with_05809'
p1589
S'Nigella Lawson'
p1590
(lp1591
S'cranberry juice'
p1592
aS'caster sugar'
p1593
aS'plums'
p1594
aS'cinnamon stick'
p1595
aS'free-range eggs'
p1596
aS'full-fat milk'
p1597
aS'ground cinnamon'
p1598
aS'sugar'
p1599
aS'large slices stale white bread'
p1600
aS'soft'
p1601
atp1602
tp1603
Rp1604
sS'Prawns al cremat with a Little Gem, dandelion and watercress salad served with aioli'
p1605
g2
(g3
g4
(S'http://www.bbc.co.uk/food/recipes/alcrematwithalittleg_94027'
p1606
S'Bjorn van der Horst'
p1607
(lp1608
S'olive oil'
p1609
aS'shallot, peeled'
p1610
aS'anchovy fillet'
p1611
aS'finely chopped red chilli'
p1612
aS'garlic, peeled'
p1613
aS'king prawns, peeled'
p1614
aS'dry white wine'
p1615
aS'fish soup'
p1616
aS'chopped fresh flatleaf parsley'
p1617
aS'persillade (equal quantities of finely chopped garlic and parsley)'
p1618
aS'breadcrumbs'
p1619
aS'garlic cloves'
p1620
aS'Dijon mustard'
p1621
aS'extra virgin olive oil'
p1622
aS'ground espelette pepper (or pinch paprika and cayenne pepper)'
p1623
aS'lemon'
p1624
aS'sherry vinegar'
p1625
aS'olive oil'
p1626
aS'Dijon mustard'
p1627
aS'shallot, peeled'
p1628
aS'Little Gem lettuces'
p1629
aS'dandelion leaves'
p1630
aS'watercress'
p1631
aS'chopped fresh tarragon'
p1632
aS'chopped fresh chervil'
p1633
aS'chopped fresh mint'
p1634
aS'slices toasted sourdough bread'
p1635
atp1636
tp1637
Rp1638
sS'Baked stuffed aubergine with walnut and Roquefort'
p1639
g2
(g3
g4
(S'http://www.bbc.co.uk/food/recipes/bakedstuffedaubergin_71986'
p1640
S'James Martin'
p1641
(lp1642
S'large aubergines'
p1643
aS'garlic cloves'
p1644
aS'small white onion'
p1645
aS'tomatoes'
p1646
aS'small of fresh rosemary'
p1647
aS'small of fresh thyme'
p1648
aS'virgin olive oil'
p1649
aS'salt and freshly ground black pepper'
p1650
aS'walnuts'
p1651
aS'toasted fresh breadcrumbs'
p1652
aS'vegetarian Roquefort cheese'
p1653
aS'olive oil'
p1654
aS'medium onion'
p1655
aS'garlic clove'
p1656
aS'x tin good-quality tomatoes'
p1657
aS'small fresh basil leaves'
p1658
aS'fresh chopped oregano'
p1659
atp1660
tp1661
Rp1662
sS'Cranberry-studded mincemeat'
p1663
g2
(g3
g4
(S'http://www.bbc.co.uk/food/recipes/cranberrystuddedminc_90619'
p1664
S'Nigella Lawson'
p1665
(lp1666
S'soft dark brown sugar'
p1667
aS'ruby port'
p1668
aS'cranberries'
p1669
aS'ground cinnamon'
p1670
aS'ground ginger'
p1671
aS'ground cloves'
p1672
aS'currants'
p1673
aS'raisins'
p1674
aS'dried cranberries'
p1675
aS'clementine'
p1676
aS'brandy'
p1677
aS'few drops almond extract'
p1678
aS'vanilla extract'
p1679
aS'honey'
p1680
atp1681
tp1682
Rp1683
sS'Carpaccio of cured venison with horseradish, chive and roasted walnut cream'
p1684
g2
(g3
g4
(S'http://www.bbc.co.uk/food/recipes/carpaccioofcuredveni_86279'
p1685
S'Noel McMeel'
p1686
(lp1687
S'boneless loin of venison'
p1688
aS'rapeseed oil'
p1689
aS'sea salt'
p1690
aS'juniper berries'
p1691
aS'star anise'
p1692
aS'cracked black pepper'
p1693
aS'rosemary, leaves only'
p1694
aS'sprigs thyme, leaves only'
p1695
aS'coriander seeds'
p1696
aS'grated orange zest'
p1697
aS'grated lemon zest'
p1698
aS'salt and freshly ground black pepper'
p1699
aS'walnuts'
p1700
aS'pint whipping cream'
p1701
aS'freshly grated horseradish'
p1702
aS'wholegrain mustard'
p1703
aS'chives'
p1704
aS'olive oil'
p1705
aS'a few chives'
p1706
atp1707
tp1708
Rp1709
sS'Venison with sweet and sour parsnips, pear and curly kale'
p1710
g2
(g3
g4
(S'http://www.bbc.co.uk/food/recipes/roastloinofvenisonwi_93125'
p1711
S'Glynn Purnell'
p1712
(lp1713
S'x venison loins'
p1714
aS'freshly ground black pepper'
p1715
aS'juniper berries'
p1716
aS'butter'
p1717
aS'caster sugar'
p1718
aS'malt vinegar'
p1719
aS'medium parsnip, peeled'
p1720
aS'chicken stock'
p1721
aS'kale, washed thoroughly'
p1722
aS'Conference pear, peeled, core removed'
p1723
aS'extra virgin olive oil'
p1724
aS'salt'
p1725
aS'red wine gravy'
p1726
atp1727
tp1728
Rp1729
sS'Sweetcorn fritters with homemade ketchup'
p1730
g2
(g3
g4
(S'http://www.bbc.co.uk/food/recipes/sweetcornfritterswit_87400'
p1731
S'Simon Rimmer'
p1732
(lp1733
S'plain flour'
p1734
aS'baking powder'
p1735
aS'salt and freshly ground black pepper'
p1736
aS'smoked paprika'
p1737
aS'caster sugar'
p1738
aS'free-range eggs'
p1739
aS'milk'
p1740
aS'sweetcorn kernels (if using tinned'
p1741
aS'finely chopped spring onions'
p1742
aS'vegetable oil'
p1743
aS'vegetable oil'
p1744
aS'onion'
p1745
aS'stick celery'
p1746
aS'bulb fennel'
p1747
aS'fresh ginger'
p1748
aS'garlic cloves'
p1749
aS'fresh red chilli'
p1750
aS'coriander seeds'
p1751
aS'cloves'
p1752
aS'plum tomatoes'
p1753
aS'water'
p1754
aS'salt and freshly ground black pepper'
p1755
aS'soft brown sugar'
p1756
aS'red wine vinegar'
p1757
atp1758
tp1759
Rp1760
sS'Wild Scottish venison with port, figs and potato wedges'
p1761
g2
(g3
g4
(S'http://www.bbc.co.uk/food/recipes/wild_scottish_venison_36281'
p1762
S'Rob Mackenzie and Andy Waugh'
p1763
(lp1764
S'cold-pressed rapeseed oil'
p1765
aS'large potatoes'
p1766
aS'smoked sea salt'
p1767
aS'cold-pressed rapeseed oil'
p1768
aS'small red chillies'
p1769
aS'small red onions'
p1770
aS'wild Scottish venison haunch steaks'
p1771
aS'soft dried figs'
p1772
aS'port'
p1773
aS'balsamic vinegar'
p1774
aS'watercress salad'
p1775
atp1776
tp1777
Rp1778
sS'Lavender creme caramel with lavender shortbread'
p1779
g2
(g3
g4
(S'http://www.bbc.co.uk/food/recipes/lavender_crme_caramel_96589'
p1780
S'James Martin'
p1781
(lp1782
S'caster sugar'
p1783
aS'full-fat milk'
p1784
aS'double cream'
p1785
aS'dried lavender tips (to taste)'
p1786
aS'free-range eggs'
p1787
aS'unsalted butter, softened'
p1788
aS'icing sugar'
p1789
aS'dried lavender tips (to taste)'
p1790
aS'cornflour'
p1791
aS'plain flour'
p1792
aS'caster sugar (optional)'
p1793
aS'caster sugar'
p1794
aS'full-fat milk'
p1795
aS'double cream'
p1796
aS'dried lavender tips (to taste)'
p1797
aS'free-range eggs'
p1798
aS'unsalted butter, softened'
p1799
aS'icing sugar'
p1800
aS'dried lavender tips (to taste)'
p1801
aS'cornflour'
p1802
aS'plain flour'
p1803
aS'caster sugar (optional)'
p1804
atp1805
tp1806
Rp1807
sS'Slow cooker chilli con carne'
p1808
g2
(g3
g4
(S'http://www.bbc.co.uk/food/recipes/slow_cooker_chilli_con_13029'
p1809
S'Jane Hornby'
p1810
(lp1811
S'onion'
p1812
aS'red pepper'
p1813
aS'small fresh coriander'
p1814
aS'sunflower oil'
p1815
aS'beef brisket'
p1816
aS'salt and freshly ground black pepper'
p1817
aS'fat garlic cloves'
p1818
aS'ground cumin'
p1819
aS'ground coriander'
p1820
aS'hot chilli powder'
p1821
aS'dried oregano'
p1822
aS'tomato puree'
p1823
aS'can chopped tomatoes'
p1824
aS'pint hot beef stock'
p1825
aS'can red kidney beans in water'
p1826
aS'cube good quality dark chocolate'
p1827
atp1828
tp1829
Rp1830
sS'Roasted cauliflower and lentil salad with red pepper sauce'
p1831
g2
(g3
g4
(S'http://www.bbc.co.uk/food/recipes/roasted_cauliflower_and_49517'
p1832
S'Hemsley + Hemsley'
p1833
(lp1834
S'large cauliflower (approximately outer leaves and stalk removed'
p1835
aS'coconut oil or ghee'
p1836
aS'ground cumin'
p1837
aS'sea salt flakes'
p1838
aS'Puy lentils'
p1839
aS'bay leaf'
p1840
aS'extra virgin olive oil'
p1841
aS'finely chopped fresh flatleaf parsley'
p1842
aS'large red pepper, preferably Romano, stalk and seeds removed'
p1843
aS'cashews'
p1844
aS'garlic clove'
p1845
aS'extra virgin olive oil'
p1846
aS'lemon juice'
p1847
aS'chilli flakes (optional)'
p1848
aS'sea salt and freshly ground black pepper'
p1849
atp1850
tp1851
Rp1852
sS'Champ'
p1853
g2
(g3
g4
(S'http://www.bbc.co.uk/food/recipes/champ_67444'
p1854
S'James Martin'
p1855
(lp1856
S'potatoes'
p1857
aS'pint milk'
p1858
aS'butter'
p1859
aS'salt and white pepper'
p1860
aS'large spring onions'
p1861
atp1862
tp1863
Rp1864
sS'Grey mullet, clams, tomatoes and vegetable hearts, orange and basil dressing'
p1865
g2
(g3
g4
(S'http://www.bbc.co.uk/food/recipes/grey_mullet_clams_92281'
p1866
S'Simon Hulstone'
p1867
(lp1868
S'x fillets grey mullet'
p1869
aS'salt and freshly ground black pepper'
p1870
aS'plum tomatoes'
p1871
aS'beef tomato'
p1872
aS'yellow or heritage variety tomatoes'
p1873
aS'cucumber'
p1874
aS'button onions, peeled, halved'
p1875
aS'spring onions, preferably red ones'
p1876
aS'clams'
p1877
aS'white wine'
p1878
aS'fresh orange juice'
p1879
aS'olive oil'
p1880
aS'caster sugar'
p1881
aS'salt'
p1882
aS'fresh basil leaves'
p1883
aS'oranges, peeled'
p1884
aS'small micro basil'
p1885
aS'small micro red wood sorrel'
p1886
aS'small green wood sorrel'
p1887
aS'borage flowers'
p1888
aS'rocket flowers'
p1889
atp1890
tp1891
Rp1892
sS'Barbecued sardines'
p1893
g2
(g3
g4
(S'http://www.bbc.co.uk/food/recipes/barbecued_sardines_27707'
p1894
S'James Martin'
p1895
(lp1896
S'cucumber, cut in half lengthways, seeds scraped out'
p1897
aS'banana shallot'
p1898
aS'garlic cloves'
p1899
aS'extra virgin olive oil'
p1900
aS'chopped fresh dill'
p1901
aS'chopped fresh mint leaves'
p1902
aS'chopped fresh coriander leaves'
p1903
aS'limes'
p1904
aS'sardines'
p1905
aS'sea salt and freshly ground black pepper'
p1906
atp1907
tp1908
Rp1909
sS'Raw cranberry sauce'
p1910
g2
(g3
g4
(S'http://www.bbc.co.uk/food/recipes/fresh_cranberry_sauce_88244'
p1911
S'Mary Berry'
p1912
(lp1913
S'fresh cranberries'
p1914
aS'caster sugar'
p1915
aS'small, thin-skinned orange, cut into quarters'
p1916
aS'mixed spice'
p1917
aS'freshly grated nutmeg'
p1918
atp1919
tp1920
Rp1921
sS'Slow cooker dal'
p1922
g2
(g3
g4
(S'http://www.bbc.co.uk/food/recipes/slow_cooker_split_pea_93320'
p1923
S'Jane Hornby'
p1924
(lp1925
S'yellow split peas'
p1926
aS'onion'
p1927
aS'chopped tomatoes (from a tin or fresh)'
p1928
aS'thumb of fresh root ginger'
p1929
aS'cumin seeds'
p1930
aS'ground turmeric'
p1931
aS'garlic cloves, one crushed'
p1932
aS'freeze-dried curry leaves'
p1933
aS'pts hot vegetable stock'
p1934
aS'hot green finger chilli'
p1935
aS'vegetable or sunflower oil'
p1936
aS'lemon wedges'
p1937
atp1938
tp1939
Rp1940
sS'Curranty cordial'
p1941
g2
(g3
g4
(S'http://www.bbc.co.uk/food/recipes/curranty_cordial_71718'
p1942
S'Jo Wesley and Avril Rogers'
p1943
(lp1944
S'redcurrants'
p1945
aS'blackcurrants'
p1946
aS'strawberries'
p1947
aS'granulated sugar'
p1948
aS'lemon'
p1949
atp1950
tp1951
Rp1952
sS'Mincemeat hot cakes with brandy butter'
p1953
g2
(g3
g4
(S'http://www.bbc.co.uk/food/recipes/mincemeat_hot_cakes_with_55190'
p1954
S'Nigel Slater'
p1955
(lp1956
S'free-range eggs'
p1957
aS'ready-made mincemeat'
p1958
aS'plain flour'
p1959
aS'a clementine'
p1960
aS'a little butter'
p1961
aS'brandy butter'
p1962
atp1963
tp1964
Rp1965
sS'Fragrant pork and aubergines'
p1966
g2
(g3
g4
(S'http://www.bbc.co.uk/food/recipes/fragrantpork_89290'
p1967
S'Ching-He Huang'
p1968
(lp1969
S'groundnut oil'
p1970
aS'aubergine'
p1971
aS'garlic cloves'
p1972
aS'grated fresh root ginger'
p1973
aS'red chilli'
p1974
aS'pork mince'
p1975
aS'Shaoxing rice wine or dry sherry'
p1976
aS'chilli bean sauce (available from Asian grocers)'
p1977
aS'hot chicken stock'
p1978
aS'pak choi or Chinese cabbage'
p1979
aS'clear rice vinegar or cider vinegar'
p1980
aS'toasted sesame oil'
p1981
aS'spring onions'
p1982
aS'cornflour'
p1983
aS'groundnut oil'
p1984
aS'aubergine'
p1985
aS'garlic cloves'
p1986
aS'grated fresh root ginger'
p1987
aS'red chilli'
p1988
aS'pork mince'
p1989
aS'Shaoxing rice wine or dry sherry'
p1990
aS'chilli bean sauce (available from Asian grocers)'
p1991
aS'hot chicken stock'
p1992
aS'pak choi or Chinese cabbage'
p1993
aS'clear rice vinegar or cider vinegar'
p1994
aS'toasted sesame oil'
p1995
aS'spring onions'
p1996
aS'cornflour'
p1997
atp1998
tp1999
Rp2000
sS'Toffee apple sponge pudding'
p2001
g2
(g3
g4
(S'http://www.bbc.co.uk/food/recipes/toffeeapplespongepud_92633'
p2002
S'Simon Rimmer'
p2003
(lp2004
S'unsalted butter'
p2005
aS'golden caster sugar'
p2006
aS'free-range eggs'
p2007
aS'self-raising flour'
p2008
aS'splash full-fat milk'
p2009
aS'stem ginger (from a jar)'
p2010
aS'cooking apples, peeled, cores removed'
p2011
aS'sugar'
p2012
aS'butter'
p2013
aS'soft dark brown sugar'
p2014
aS'double cream'
p2015
aS'condensed milk'
p2016
aS'calvados (optional)'
p2017
aS'ready-made custard'
p2018
atp2019
tp2020
Rp2021
sS'Asparagus risotto'
p2022
g2
(g3
g4
(S'http://www.bbc.co.uk/food/recipes/asparagusrisotto_85593'
p2023
S'Phil Vickery'
p2024
(lp2025
S'asparagus spears'
p2026
aS'olive oil'
p2027
aS'shallot'
p2028
aS'garlic clove'
p2029
aS'risotto rice (eg carnaroli or arborio)'
p2030
aS'white wine'
p2031
aS'hot vegetable stock'
p2032
aS'unsalted butter'
p2033
aS'Parmesan (or a similar vegetarian hard cheese)'
p2034
aS'salt and freshly ground black pepper'
p2035
aS'Parmesan (or a similar vegetarian hard cheese)'
p2036
atp2037
tp2038
Rp2039
sS'Black Forest cranachan'
p2040
g2
(g3
g4
(S'http://www.bbc.co.uk/food/recipes/black_forest_cranachan_06130'
p2041
S'Allegra McEvedy'
p2042
(lp2043
S'fresh cherries, stones removed'
p2044
aS'almond liqueur'
p2045
aS'rolled oats'
p2046
aS'flaked almonds'
p2047
aS'good-quality dark chocolate (minimum cocoa solids)'
p2048
aS'clear honey'
p2049
aS'double cream'
p2050
aS'icing sugar'
p2051
atp2052
tp2053
Rp2054
sS'Tomatoes stuffed with salmon'
p2055
g2
(g3
g4
(S'http://www.bbc.co.uk/food/recipes/tomatoes_stuffed_with_16590'
p2056
S'Brian Turner'
p2057
(lp2058
S'garlic cloves, peeled'
p2059
aS'small fresh parsley'
p2060
aS'chopped walnuts'
p2061
aS'rapeseed oil'
p2062
aS'salt'
p2063
aS'cooked leftover salmon fillet'
p2064
aS'shredded smoked salmon'
p2065
aS'ready-made mayonnaise'
p2066
aS'garlic clove'
p2067
aS'tomato ketchup'
p2068
aS'splash balsamic vinegar'
p2069
aS'large firm tomatoes, cut in half from top to bottom'
p2070
aS'salt and freshly ground black pepper'
p2071
aS'French beans'
p2072
aS'olive oil'
p2073
aS'white wine vinegar'
p2074
aS'Dijon mustard'
p2075
aS'small shallots'
p2076
atp2077
tp2078
Rp2079
sS'Smooth and creamy raspberry chia pudding'
p2080
g2
(g3
g4
(S'http://www.bbc.co.uk/food/recipes/smooth_and_creamy_58355'
p2081
S'Hemsley + Hemsley'
p2082
(lp2083
S'of full-fat creme fraiche (preferably organic)'
p2084
aS'chia seeds (available from health food stores)'
p2085
aS'vanilla extract'
p2086
aS'honey, preferably raw'
p2087
aS'raspberries'
p2088
aS'drops pure stevia extract (available from health food stores)'
p2089
aS'small toasted desiccated coconut or chopped almonds'
p2090
aS'unwaxed orange'
p2091
atp2092
tp2093
Rp2094
sS'Tagliarini with sea bass, squid, mussels, clams, brown shrimps, tomato and parsley'
p2095
g2
(g3
g4
(S'http://www.bbc.co.uk/food/recipes/taglieriniwithseabas_92548'
p2096
S'Theo Randall'
p2097
(lp2098
S'olive oil'
p2099
aS'garlic clove, peeled'
p2100
aS'x can chopped tomatoes'
p2101
aS'small clams'
p2102
aS'mussels'
p2103
aS'dry white wine'
p2104
aS'x sea bass fillets, skin removed'
p2105
aS'squid (tentacles included)'
p2106
aS'brown shrimps'
p2107
aS'chopped fresh flatleaf parsley'
p2108
aS'dried chilli flakes'
p2109
aS'salt and freshly ground black pepper'
p2110
aS'fresh tagliarini'
p2111
atp2112
tp2113
Rp2114
sS'English almond butter toffee'
p2115
g2
(g3
g4
(S'http://www.bbc.co.uk/food/recipes/english_almond_butter_49759'
p2116
S'Kitty Hope and Mark Greenwood'
p2117
(lp2118
S'groundnut oil'
p2119
aS'flaked almonds'
p2120
aS'unsalted butter'
p2121
aS'granulated sugar'
p2122
aS'vanilla extract'
p2123
aS'milk chocolate'
p2124
atp2125
tp2126
Rp2127
sS'Asparagus with cured ham, poached duck egg and hollandaise sauce'
p2128
g2
(g3
g4
(S'http://www.bbc.co.uk/food/recipes/asparagus_with_cured_ham_54730'
p2129
S'James Martin'
p2130
(lp2131
S'white wine vinegar'
p2132
aS'duck eggs'
p2133
aS'asparagus spears'
p2134
aS'slices air-cured ham, ideally British (alternatively'
p2135
aS'unsalted butter'
p2136
aS'white wine vinegar'
p2137
aS'shallot'
p2138
aS'whole black peppercorns'
p2139
aS'large egg yolks'
p2140
aS'salt and freshly ground black pepper'
p2141
atp2142
tp2143
Rp2144
sS'Tomato and basil savoury jam'
p2145
g2
(g3
g4
(S'http://www.bbc.co.uk/food/recipes/tomato_and_basil_savoury_46330'
p2146
S'Alan'
p2147
(lp2148
S'ripe tomatoes, skinned'
p2149
aS'shallots'
p2150
aS'garlic cloves'
p2151
aS'red chilli, deseeded'
p2152
aS'lemon'
p2153
aS'balsamic vinegar'
p2154
aS'pectin'
p2155
aS'caster sugar'
p2156
aS'finely chopped fresh basil leaves'
p2157
atp2158
tp2159
Rp2160
sS'Cauliflower cheese'
p2161
g2
(g3
g4
(S'http://www.bbc.co.uk/food/recipes/cauliflower_cheese_30249'
p2162
S'Sophie Wright'
p2163
(lp2164
S'large head cauliflower'
p2165
aS'sea salt and freshly ground black pepper'
p2166
aS'unsalted butter'
p2167
aS'plain flour'
p2168
aS'rasps nutmeg'
p2169
aS'skimmed milk'
p2170
aS'mature cheddar'
p2171
aS'Dijon mustard'
p2172
aS'parmesan, or similar vegetarian hard cheese'
p2173
atp2174
tp2175
Rp2176
sS'Roasted peach and raspberry pavlovas'
p2177
g2
(g3
g4
(S'http://www.bbc.co.uk/food/recipes/roastedpeachandraspb_92211'
p2178
S'James Martin'
p2179
(lp2180
S'free-range egg whites'
p2181
aS'caster sugar'
p2182
aS'cornflour'
p2183
aS'white wine vinegar'
p2184
aS'double cream'
p2185
aS'caster sugar'
p2186
aS'water'
p2187
aS'fresh orange and peach juice'
p2188
aS'ripe peaches'
p2189
aS'unsalted butter'
p2190
aS'raspberries'
p2191
aS'whole almonds'
p2192
atp2193
tp2194
Rp2195
sS'Grilled peach, burrata and basil salad with Dijon dressing'
p2196
g2
(g3
g4
(S'http://www.bbc.co.uk/food/recipes/grilled_peach_burrata_88873'
p2197
S'Lorraine Pascale'
p2198
(lp2199
S'extra virgin olive oil'
p2200
aS'balsamic vinegar (not a syrupy one)'
p2201
aS'Dijon mustard'
p2202
aS'flaked sea salt and freshly ground black pepper'
p2203
aS'olive oil'
p2204
aS'peaches, almost ripe but not too soft'
p2205
aS'ball buratta'
p2206
aS'bag rocket'
p2207
aS'of basil, leaves only'
p2208
atp2209
tp2210
Rp2211
sS'Caramelised apple floating islands'
p2212
g2
(g3
g4
(S'http://www.bbc.co.uk/food/recipes/caramelised_apple_91581'
p2213
S'Jo Wood'
p2214
(lp2215
S'butter'
p2216
aS'apples, peeled'
p2217
aS'dark brown sugar'
p2218
aS'free-range eggs'
p2219
aS'pints full-fat milk'
p2220
aS'caster sugar'
p2221
aS'vanilla extract'
p2222
atp2223
tp2224
Rp2225
sS'Sweet potato and chestnut hash'
p2226
g2
(g3
g4
(S'http://www.bbc.co.uk/food/recipes/sweet_potato_and_32889'
p2227
S'Simon Rimmer'
p2228
(lp2229
S'vegetable oil'
p2230
aS'onion'
p2231
aS'garlic clove'
p2232
aS'sweet potato'
p2233
aS'potato'
p2234
aS'red chilli'
p2235
aS'vacuum-packed chestnuts'
p2236
aS'unsalted butter'
p2237
aS'chopped fresh tarragon'
p2238
aS'poached eggs'
p2239
aS'creme fraiche'
p2240
aS'gherkins'
p2241
atp2242
tp2243
Rp2244
sS'Rosemary and garlic salt baked lamb shank'
p2245
g2
(g3
g4
(S'http://www.bbc.co.uk/food/recipes/rosemary_and_garlic_salt_80067'
p2246
S'Tom Kerridge'
p2247
(lp2248
S'salt'
p2249
aS'flour'
p2250
aS'free-range eggs'
p2251
aS'rosemary'
p2252
aS'lamb shanks'
p2253
aS'head garlic, separated into cloves'
p2254
aS'white wine vinegar'
p2255
aS'cinnamon stick'
p2256
aS'star anise'
p2257
aS'fennel seeds'
p2258
aS'coriander seeds'
p2259
aS'caster sugar'
p2260
aS'white peppercorns'
p2261
aS'Sichuan pepper'
p2262
aS'cabbage'
p2263
aS'onion'
p2264
aS'spring onions'
p2265
aS'red onion'
p2266
aS'green chilli'
p2267
aS'sea salt flakes'
p2268
aS'chives'
p2269
aS'rapeseed oil'
p2270
aS'nasturtium leaves'
p2271
aS'egg'
p2272
aS'English mustard'
p2273
aS'white wine vinegar'
p2274
aS'caster sugar'
p2275
aS'lemon juice'
p2276
aS'vegetable oil'
p2277
atp2278
tp2279
Rp2280
sS'Blueberry butter'
p2281
g2
(g3
g4
(S'http://www.bbc.co.uk/food/recipes/blueberry_butter_07052'
p2282
S'Jo Wesley and Avril Rogers'
p2283
(lp2284
S'cooking apples (about'
p2285
aS'blueberries'
p2286
aS'clear apple juice'
p2287
aS'medium orange'
p2288
aS'sugar'
p2289
atp2290
tp2291
Rp2292
sS'Colcannon'
p2293
g2
(g3
g4
(S'http://www.bbc.co.uk/food/recipes/colcannon_13802'
p2294
S'Hugh Fearnley-Whittingstall'
p2295
(lp2296
S'floury potatoes'
p2297
aS'cabbage'
p2298
aS'cream (optional)'
p2299
aS'salt and black pepper'
p2300
aS'large or small onions'
p2301
aS'a little bacon fat, beef dripping or other oil'
p2302
atp2303
tp2304
Rp2305
sS'Winter roots and lemon roast'
p2306
g2
(g3
g4
(S'http://www.bbc.co.uk/food/recipes/winter_roots_and_lemon_06059'
p2307
S'Nigel Slater'
p2308
(lp2309
S'Jerusalem artichokes'
p2310
aS'small potatoes'
p2311
aS'good glug of olive oil'
p2312
aS'lemons'
p2313
aS'salt and ground black pepper'
p2314
aS'large handfuls of fresh flatleaf parsley'
p2315
aS'small lump of parmesan'
p2316
atp2317
tp2318
Rp2319
sS'Flambeed clementines and satsumas'
p2320
g2
(g3
g4
(S'http://www.bbc.co.uk/food/recipes/flambeedclementinesa_86111'
p2321
S"Gino D'Acampo"
p2322
(lp2323
S'satsuma'
p2324
aS'clementine'
p2325
aS'satsuma'
p2326
aS'clementine'
p2327
aS'white wine'
p2328
aS'orange liqueur'
p2329
aS'fresh mint leaves'
p2330
atp2331
tp2332
Rp2333
sS'American-style pancakes with blueberries'
p2334
g2
(g3
g4
(S'http://www.bbc.co.uk/food/recipes/americanstylepancake_89165'
p2335
S'Denis Lawson'
p2336
(lp2337
S'self-raising flour'
p2338
aS'baking powder'
p2339
aS'large eggs'
p2340
aS'milk'
p2341
aS'salt'
p2342
aS'fresh blueberries'
p2343
aS'vegetable oil'
p2344
atp2345
tp2346
Rp2347
sS'Sea trout with carrots, asparagus and butter sauce'
p2348
g2
(g3
g4
(S'http://www.bbc.co.uk/food/recipes/seatroutwithcarrotsa_92386'
p2349
S'Galton Blackiston'
p2350
(lp2351
S'x wild sea trout, filleted'
p2352
aS'cockles, in their shells'
p2353
aS'water'
p2354
aS'baby carrots, scrubbed'
p2355
aS'asparagus spears, woody ends trimmed'
p2356
aS'butter'
p2357
aS'olive oil'
p2358
aS'cooked new potatoes'
p2359
aS'samphire'
p2360
aS'shallot'
p2361
aS'white wine vinegar'
p2362
aS'white wine'
p2363
aS'lemon juice'
p2364
aS'salted butter'
p2365
aS'chopped fresh chives'
p2366
atp2367
tp2368
Rp2369
sS'Rum punch roast pears, figs and peaches with toasted hazelnuts and vanilla creme fraiche'
p2370
g2
(g3
g4
(S'http://www.bbc.co.uk/food/recipes/rum_punch_roast_pears_27907'
p2371
S'Lorraine Pascale'
p2372
(lp2373
S'ripe peaches (or nectarines)'
p2374
aS'figs'
p2375
aS'ripe pears, quartered'
p2376
aS'dark rum (or apple juice)'
p2377
aS'soft light brown sugar'
p2378
aS'vanilla pod'
p2379
aS'cinnamon stick'
p2380
aS'sprigs of rosemary'
p2381
aS'orange'
p2382
aS'a of hazelnuts'
p2383
aS'creme fraiche'
p2384
aS'icing sugar'
p2385
aS'a grating of nutmeg'
p2386
atp2387
tp2388
Rp2389
sS'Welsh cakes with roasted apricots and Welsh cake ice cream'
p2390
g2
(g3
g4
(S'http://www.bbc.co.uk/food/recipes/welshcakeswithroaste_82041'
p2391
S'Angela Hartnett'
p2392
(lp2393
S'self-raising flour'
p2394
aS'mixed spice'
p2395
aS'of salt'
p2396
aS'caster sugar'
p2397
aS'lemon'
p2398
aS'butter'
p2399
aS'sultanas'
p2400
aS'large free-range egg'
p2401
aS'milk if needed'
p2402
aS'lard'
p2403
aS'free-range egg yolks'
p2404
aS'caster sugar'
p2405
aS'whipping cream'
p2406
aS'milk'
p2407
aS'vanilla pod'
p2408
aS'ground cinnamon'
p2409
aS'freshly grated nutmeg'
p2410
aS'apricots'
p2411
aS'caster sugar'
p2412
aS'knob of unsalted butter'
p2413
atp2414
tp2415
Rp2416
sS'Waffles with strawberry compote and ice cream'
p2417
g2
(g3
g4
(S'http://www.bbc.co.uk/food/recipes/waffles_with_strawberry_51757'
p2418
S'James Martin'
p2419
(lp2420
S'plain flour'
p2421
aS'baking powder'
p2422
aS'salt'
p2423
aS'caster sugar'
p2424
aS'free-range eggs'
p2425
aS'pint full-fat milk'
p2426
aS'melted butter'
p2427
aS'caster sugar'
p2428
aS'butter'
p2429
aS'strawberries'
p2430
aS'lemon'
p2431
aS'vanilla ice cream'
p2432
aS'maple syrup'
p2433
atp2434
tp2435
Rp2436
sS'Poached egg with toasted brioche and hazelnut-crumbed asparagus'
p2437
g2
(g3
g4
(S'http://www.bbc.co.uk/food/recipes/poached_egg_with_toasted_26578'
p2438
S'James Martin'
p2439
(lp2440
S'asparagus spears'
p2441
aS'loaf brioche'
p2442
aS'hazelnuts'
p2443
aS'butter'
p2444
aS'maple syrup'
p2445
aS'white wine vinegar'
p2446
aS'hen eggs'
p2447
atp2448
tp2449
Rp2450
sS'Caramelised chicory'
p2451
g2
(g3
g4
(S'http://www.bbc.co.uk/food/recipes/caramelisedchicory_85616'
p2452
S'Sophie Grigson'
p2453
(lp2454
S'butter'
p2455
aS'chicory'
p2456
aS'clear honey'
p2457
aS'large orange'
p2458
aS'salt and freshly ground black pepper'
p2459
atp2460
tp2461
Rp2462
sS'Italian roast chicken with peppers and olives'
p2463
g2
(g3
g4
(S'http://www.bbc.co.uk/food/recipes/italian_roast_chicken_88087'
p2464
S'Nigella Lawson'
p2465
(lp2466
S'x chicken (preferably organic)'
p2467
aS'unwaxed lemon'
p2468
aS'sprigs rosemary'
p2469
aS'leeks'
p2470
aS'red peppers'
p2471
aS'orange pepper'
p2472
aS'yellow pepper'
p2473
aS'pitted dry-packed black olives'
p2474
aS'olive oil'
p2475
aS'Sea salt flakes and freshly ground black pepper'
p2476
atp2477
tp2478
Rp2479
sS'Crab and salmon fishcakes with homemade tartare sauce'
p2480
g2
(g3
g4
(S'http://www.bbc.co.uk/food/recipes/crabsalmonanddillfis_93618'
p2481
S'Sophie Dahl'
p2482
(lp2483
S'small potatoes'
p2484
aS'sea salt and freshly ground black pepper'
p2485
aS'olive oil'
p2486
aS'salmon, poached, flaked'
p2487
aS'white crab meat'
p2488
aS'brown crab meat'
p2489
aS'good quality mayonnaise'
p2490
aS'fresh flatleaf parsley'
p2491
aS'fresh dill'
p2492
aS'red chilli'
p2493
aS'Dijon mustard'
p2494
aS'sea salt and freshly ground black pepper'
p2495
aS'olive oil'
p2496
aS'good quality mayonnaise'
p2497
aS'small cornichons or gherkins'
p2498
aS'capers'
p2499
aS'fresh flatleaf parsley'
p2500
aS'lemon'
p2501
aS'grated fresh horseradish'
p2502
aS'sea salt and freshly ground black pepper'
p2503
aS'large handfuls fresh baby spinach'
p2504
aS'olive oil'
p2505
aS'sea salt and freshly ground black pepper'
p2506
atp2507
tp2508
Rp2509
sS'Barbecued pork patties with noodles, chicken broth and salad greens (bun cha)'
p2510
g2
(g3
g4
(S'http://www.bbc.co.uk/food/recipes/barbecuedporkpatties_91776'
p2511
S'Rick Stein'
p2512
(lp2513
S'carrots, peeled'
p2514
aS'mooli (daikon), peeled'
p2515
aS'salt'
p2516
aS'rice vinegar'
p2517
aS'caster sugar'
p2518
aS'water'
p2519
aS'chicken carcasses or chicken drumsticks or wings'
p2520
aS'spring onions, or onion'
p2521
aS'garlic, peeled'
p2522
aS'fresh root ginger, peeled'
p2523
aS'star anise'
p2524
aS'black or white peppercorns'
p2525
aS'fish sauce'
p2526
aS'palm sugar (available at Asian grocers; substitute golden caster sugar if unavailable)'
p2527
aS'minced pork'
p2528
aS'fish sauce'
p2529
aS'palm sugar'
p2530
aS'finely chopped garlic'
p2531
aS'shallots, peeled'
p2532
aS'freshly ground black pepper'
p2533
aS'salt'
p2534
aS'fresh fine rice noodles or dried rice vermicelli'
p2535
aS'small head lettuce'
p2536
aS'large fresh coriander'
p2537
aS'bean sprouts'
p2538
aS'kohlrabi or green papaya, peeled'
p2539
aS'rice vinegar'
p2540
aS"birds'-eye chillies"
p2541
aS'finely chopped garlic'
p2542
aS'pickled carrot and mooli (see recipe above)'
p2543
atp2544
tp2545
Rp2546
sS'Rhubarb panna cotta with roasted rhubarb'
p2547
g2
(g3
g4
(S'http://www.bbc.co.uk/food/recipes/rhubarbpannacottawit_90890'
p2548
S'James Martin'
p2549
(lp2550
S'rhubarb'
p2551
aS'caster sugar'
p2552
aS'apple juice'
p2553
aS'caster sugar'
p2554
aS'double cream'
p2555
aS'leaves gelatine, soaked in a bowl of water until soft'
p2556
aS'buttermilk'
p2557
atp2558
tp2559
Rp2560
sS'Shoulder of mountain lamb with leek-wrapped loin and champ'
p2561
g2
(g3
g4
(S'http://www.bbc.co.uk/food/recipes/shoulderofmountainla_86185'
p2562
S'Richard Corrigan'
p2563
(lp2564
S'shoulder of lamb on the bone, about trimmed of excess fat and sinew'
p2565
aS'few sprigs each of rosemary and thyme'
p2566
aS'olive oil'
p2567
aS'selection of finely cubed vegetables carrots'
p2568
aS'x bottle dry white wine'
p2569
aS'white wine vinegar'
p2570
aS'best end (rack) of lamb'
p2571
aS'salt and freshly ground black pepper'
p2572
aS'onion'
p2573
aS'garlic cloves'
p2574
aS'button mushrooms'
p2575
aS'large leek'
p2576
aS'knob of unsalted butter'
p2577
aS'onions'
p2578
aS'shallots'
p2579
aS'garlic clove'
p2580
aS'thyme leaves'
p2581
aS'olive oil'
p2582
aS'knob of unsalted butter'
p2583
aS"floury potatoes, such as Kerr's Pink"
p2584
aS'pint whole milk'
p2585
aS'unsalted butter'
p2586
aS'spring onions'
p2587
aS'chopped chives'
p2588
aS'banana shallot'
p2589
aS'broad beans in their pods'
p2590
aS'peas in their pods'
p2591
aS'unsalted butter'
p2592
atp2593
tp2594
Rp2595
sS'Scallops with leek and chestnut'
p2596
g2
(g3
g4
(S'http://www.bbc.co.uk/food/recipes/scallops_with_leek_and_17532'
p2597
S'Stephane Reynaud'
p2598
(lp2599
S'olive oil'
p2600
aS'garlic cloves'
p2601
aS'leeks, white part only'
p2602
aS'spring onions'
p2603
aS'fresh ginger'
p2604
aS'white wine'
p2605
aS'pre-cooked and peeled chestnuts'
p2606
aS'whipping cream'
p2607
aS'scallops in the shell, cleaned'
p2608
aS'salt and freshly ground black pepper'
p2609
atp2610
tp2611
Rp2612
sS'Pea hummus'
p2613
g2
(g3
g4
(S'http://www.bbc.co.uk/food/recipes/pea_hummus_74694'
p2614
S'Rekha'
p2615
(lp2616
S'fresh peas'
p2617
aS'tahini'
p2618
aS'freshly squeezed lime juice'
p2619
aS'ground cumin'
p2620
aS'salt'
p2621
aS'chopped fresh coriander'
p2622
aS'spring onions, trimmed'
p2623
aS'vegetable crisps or tortilla chips'
p2624
atp2625
tp2626
Rp2627
sS'Sausage, pumpkin and sage casserole'
p2628
g2
(g3
g4
(S'http://www.bbc.co.uk/food/recipes/sausagepumpkinandsag_92737'
p2629
S'Matt Tebbutt'
p2630
(lp2631
S'butter'
p2632
aS'good-quality sausages'
p2633
aS'onion, peeled'
p2634
aS'banana shallots, peeled'
p2635
aS'garlic cloves, peeled'
p2636
aS'chopped fresh sage'
p2637
aS'small pumpkin, peeled, seeds removed'
p2638
aS'white wine vinegar'
p2639
aS'caster sugar'
p2640
aS'canned chopped tomatoes'
p2641
aS'canned cannellini beans, drained'
p2642
aS'chicken stock'
p2643
aS'salt and freshly ground black pepper'
p2644
aS'chopped fresh flatleaf parsley'
p2645
atp2646
tp2647
Rp2648
sS'Vegetable gnocchi gratin'
p2649
g2
(g3
g4
(S'http://www.bbc.co.uk/food/recipes/vegetable_gnocchi_gratin_53883'
p2650
S'Cheryl Ferguson'
p2651
(lp2652
S'small butternut squash (about peeled, seeds removed'
p2653
aS'olive oil'
p2654
aS'sea salt and freshly ground black pepper'
p2655
aS'small winter greens, such as kale'
p2656
aS'x bag fresh gnocchi'
p2657
aS'red onion'
p2658
aS'thyme'
p2659
aS'rosemary, leaves only'
p2660
aS'garlic clove'
p2661
aS'chestnut mushrooms'
p2662
aS'small tub (about half-fat creme fraiche'
p2663
aS"soft goats' cheese"
p2664
aS'Japanese panko breadcrumbs, or fresh'
p2665
aS'grated parmesan'
p2666
aS'mixed leaves'
p2667
aS'olive oil'
p2668
aS'lemon'
p2669
atp2670
tp2671
Rp2672
sS'Drowned tomatoes'
p2673
g2
(g3
g4
(S'http://www.bbc.co.uk/food/recipes/drowned_tomatoes_24791'
p2674
S'Alex Lomax and Ed Bond'
p2675
(lp2676
S'olive oil'
p2677
aS'bulb of garlic'
p2678
aS'mixed savoury herbs'
p2679
aS'mixed tomatoes'
p2680
aS'salt and pepper'
p2681
atp2682
tp2683
Rp2684
sS'Spiced rhubarb and orange syrup'
p2685
g2
(g3
g4
(S'http://www.bbc.co.uk/food/recipes/spiced_rhubarb_and_52795'
p2686
S'Sandra'
p2687
(lp2688
S'oranges, juiced'
p2689
aS'cloves'
p2690
aS'rhubarb'
p2691
aS'caster sugar'
p2692
aS'ground cinnamon'
p2693
aS'cinnamon sticks'
p2694
atp2695
tp2696
Rp2697
sS'Artichokes alla Romana'
p2698
g2
(g3
g4
(S'http://www.bbc.co.uk/food/recipes/artichokesallaromana_91747'
p2699
S'Valentine Warner'
p2700
(lp2701
S'small globe artichokes, outer leaves peeled'
p2702
aS'lemons'
p2703
aS'fennel seeds'
p2704
aS'coriander seeds'
p2705
aS'carrots, peeled'
p2706
aS'onion, peeled'
p2707
aS'garlic cloves, peeled'
p2708
aS'celery sticks, trimmed, stringy parts peeled away'
p2709
aS'bay leaves'
p2710
aS'black peppercorns'
p2711
aS'white wine'
p2712
aS'caster sugar'
p2713
aS'sea salt flakes'
p2714
aS'water'
p2715
aS'extra virgin olive oil'
p2716
aS'chopped fresh parsley leaves'
p2717
atp2718
tp2719
Rp2720
sS'Herring in oats with potato salad'
p2721
g2
(g3
g4
(S'http://www.bbc.co.uk/food/recipes/herring_in_oats_with_84871'
p2722
S'Allegra McEvedy'
p2723
(lp2724
S'small new potatoes'
p2725
aS'kale'
p2726
aS'cucumber, cut in half lengthways, seeds scooped out with a spoon'
p2727
aS'spring onions'
p2728
aS'white balsamic vinegar'
p2729
aS'cold-pressed rapeseed oil'
p2730
aS'squeeze lemon juice'
p2731
aS'salt and freshly ground black pepper'
p2732
aS'handfuls medium oatmeal'
p2733
aS'salt and freshly ground black pepper'
p2734
aS'herring fillets'
p2735
aS'dollop English mustard'
p2736
aS'butter'
p2737
aS'splash rapeseed oil'
p2738
aS'lemon wedges'
p2739
aS'small new potatoes'
p2740
aS'kale'
p2741
aS'cucumber, cut in half lengthways, seeds scooped out with a spoon'
p2742
aS'spring onions'
p2743
aS'white balsamic vinegar'
p2744
aS'cold-pressed rapeseed oil'
p2745
aS'squeeze lemon juice'
p2746
aS'salt and freshly ground black pepper'
p2747
aS'handfuls medium oatmeal'
p2748
aS'salt and freshly ground black pepper'
p2749
aS'herring fillets'
p2750
aS'dollop English mustard'
p2751
aS'butter'
p2752
aS'splash rapeseed oil'
p2753
aS'lemon wedges'
p2754
atp2755
tp2756
Rp2757
sS'Apple crumble cocktail'
p2758
g2
(g3
g4
(S'http://www.bbc.co.uk/food/recipes/apple_crumble_cocktail_95570'
p2759
S'Wayne Collins'
p2760
(lp2761
S'whisky'
p2762
aS'apple liqueur'
p2763
aS'lemon juice'
p2764
aS'mixed spice'
p2765
aS'Bramley apple sauce'
p2766
aS'sugar syrup'
p2767
aS'Bramely apple sauce'
p2768
aS'digestive biscuit'
p2769
atp2770
tp2771
Rp2772
sS'Bubble and squeak soup'
p2773
g2
(g3
g4
(S'http://www.bbc.co.uk/food/recipes/bubble_and_squeak_soup_47649'
p2774
S'Nigel Slater'
p2775
(lp2776
S'a medium-sized onion'
p2777
aS'of dripping or butter'
p2778
aS'leftover roasted or boiled potatoes and parsnips'
p2779
aS'chopped thyme leaves'
p2780
aS'turkey'
p2781
aS'salt and ground black pepper'
p2782
aS'lightly cooked leftover greens (such as cabbage or Brussels sprouts)'
p2783
aS'single cream'
p2784
aS'a fine grating of fresh nutmeg'
p2785
atp2786
tp2787
Rp2788
sS'Salmon and asparagus terrine'
p2789
g2
(g3
g4
(S'http://www.bbc.co.uk/food/recipes/salmon_and_asparagus_69637'
p2790
S'Mary Berry'
p2791
(lp2792
S'fillet fresh salmon'
p2793
aS'salt and freshly ground black pepper'
p2794
aS'thick stems asparagus'
p2795
aS'sliced smoked salmon'
p2796
aS'full-fat cream cheese'
p2797
aS'softened butter'
p2798
aS'freshly chopped chives'
p2799
aS'lemon juice'
p2800
aS'cress'
p2801
atp2802
tp2803
Rp2804
sS'Hot knocking mustard'
p2805
g2
(g3
g4
(S'http://www.bbc.co.uk/food/recipes/hot_knocking_mustard_41658'
p2806
S'Lena'
p2807
(lp2808
S'black mustard seeds'
p2809
aS'yellow mustard seeds'
p2810
aS'fennel seeds'
p2811
aS'sea salt flakes'
p2812
aS'freshly ground black pepper'
p2813
aS'kohlrabi, outer leaves removed, cored'
p2814
aS'garlic cloves'
p2815
aS'red wine vinegar'
p2816
aS'light brown muscovado sugar'
p2817
aS'clear honey'
p2818
aS'lemon'
p2819
aS'sprigs fresh lemon thyme, leaves only'
p2820
atp2821
tp2822
Rp2823
sS'Seared salmon with asparagus salsa'
p2824
g2
(g3
g4
(S'http://www.bbc.co.uk/food/recipes/seared_salmon_with_22007'
p2825
S'Monica Galetti'
p2826
(lp2827
S'lemon'
p2828
aS'lime'
p2829
aS'coarse sea salt'
p2830
aS'fresh salmon fillet, skin removed'
p2831
aS'smoked paprika'
p2832
aS'olive oil'
p2833
aS'English asparagus'
p2834
aS'red chilli, seeds removed'
p2835
aS'red onion'
p2836
aS'cucumber, peeled and seeds removed'
p2837
aS'heirloom tomatoes, skinned and seeds removed'
p2838
aS'lime, peeled, pith removed'
p2839
aS'white balsamic vinegar'
p2840
aS'few drops Tabasco sauce'
p2841
aS'salt and freshly ground black pepper'
p2842
aS'chopped fresh coriander'
p2843
atp2844
tp2845
Rp2846
sS'Individual apricot upside-down puddings'
p2847
g2
(g3
g4
(S'http://www.bbc.co.uk/food/recipes/individual_apricot_35278'
p2848
S'Simon Rimmer'
p2849
(lp2850
S'caster sugar'
p2851
aS'apricots'
p2852
aS'caster sugar'
p2853
aS'butter, unsalted'
p2854
aS'lemons'
p2855
aS'free-range eggs'
p2856
aS'self-raising flour'
p2857
aS'apricot brandy'
p2858
aS'pint custard'
p2859
atp2860
tp2861
Rp2862
sS'Egg nog'
p2863
g2
(g3
g4
(S'http://www.bbc.co.uk/food/recipes/egg_nog_64580'
p2864
S'Emily Angle'
p2865
(lp2866
S'medium free-range eggs (preferably organic and as fresh as possible)'
p2867
aS'golden caster sugar'
p2868
aS'whole milk'
p2869
aS'double cream'
p2870
aS'rum, bourbon or a mixture of the two'
p2871
aS'freshly grated nutmeg'
p2872
atp2873
tp2874
Rp2875
sS'Fruits de mer with homemade rye bread and whipped butter'
p2876
g2
(g3
g4
(S'http://www.bbc.co.uk/food/recipes/fruits_de_mer_with_26114'
p2877
S'James Martin'
p2878
(lp2879
S'wholegrain rye flour'
p2880
aS'dark brown muscovado sugar'
p2881
aS'salt'
p2882
aS'fast-action dried yeast'
p2883
aS'unsalted butter'
p2884
aS'langoustines'
p2885
aS'razor clams'
p2886
aS'clams in their shells'
p2887
aS'x cooked lobster'
p2888
aS'medium-sized cooked brown crab'
p2889
aS'oysters'
p2890
aS'cooked shrimps in their shells'
p2891
aS'cooked brown shrimps'
p2892
aS'free-range egg yolks'
p2893
aS'Dijon mustard'
p2894
aS'cider vinegar'
p2895
aS'unwaxed lemon'
p2896
aS'rapeseed oil'
p2897
aS'salt and freshly ground black pepper'
p2898
atp2899
tp2900
Rp2901
sS'Beetroot and ginger chutney'
p2902
g2
(g3
g4
(S'http://www.bbc.co.uk/food/recipes/beetrootandgingerchu_90622'
p2903
S'Nigella Lawson'
p2904
(lp2905
S'fresh beetroot, peeled'
p2906
aS'cooking apples, peeled, quartered, cored'
p2907
aS'red onion'
p2908
aS'piece fresh ginger, peeled'
p2909
aS'crystallised stem ginger'
p2910
aS'soft light brown sugar'
p2911
aS'Maldon salt'
p2912
aS'ground allspice'
p2913
aS'pint red wine vinegar'
p2914
atp2915
tp2916
Rp2917
sS'Slow-cooked lamb shoulder with boulangere potatoes'
p2918
g2
(g3
g4
(S'http://www.bbc.co.uk/food/recipes/slow_cooked_lamb_26033'
p2919
S'Tom Kerridge'
p2920
(lp2921
S'medium onions'
p2922
aS'large waxy potatoes'
p2923
aS'thyme'
p2924
aS'salt and black pepper'
p2925
aS'whole lamb shoulder'
p2926
aS'garlic bulb'
p2927
aS'pint chicken stock'
p2928
aS'cooked French beans (or other green vegetables)'
p2929
atp2930
tp2931
Rp2932
sS'Pan-fried gurnard with broad bean, spinach and mint stew'
p2933
g2
(g3
g4
(S'http://www.bbc.co.uk/food/recipes/pan-fried_gurnard_with_79627'
p2934
S'Cass Titcombe'
p2935
(lp2936
S'olive oil'
p2937
aS'new potatoes'
p2938
aS'onion, peeled'
p2939
aS'garlic clove, peeled'
p2940
aS'chicken stock'
p2941
aS'salt'
p2942
aS'frozen shelled and podded broad beans'
p2943
aS'spinach'
p2944
aS'fresh mint leaves'
p2945
aS'freshly ground black pepper'
p2946
aS'x gurnard fillets, pin boned'
p2947
aS'streaky bacon'
p2948
atp2949
tp2950
Rp2951
sS'Seville orange meringue pie'
p2952
g2
(g3
g4
(S'http://www.bbc.co.uk/food/recipes/sevilleoprangemering_71465'
p2953
S'Mary Berry'
p2954
(lp2955
S'plain flour'
p2956
aS'icing sugar'
p2957
aS'butter'
p2958
aS'egg yolk'
p2959
aS'water'
p2960
aS'large Seville oranges'
p2961
aS'cornflour'
p2962
aS'pint water'
p2963
aS'egg yolks'
p2964
aS'caster sugar'
p2965
aS'egg whites'
p2966
aS'caster sugar'
p2967
atp2968
tp2969
Rp2970
sS'Smothered leeks and kohlrabi'
p2971
g2
(g3
g4
(S'http://www.bbc.co.uk/food/recipes/smotheredleeksandkoh_85612'
p2972
S'Sophie Grigson'
p2973
(lp2974
S'leeks'
p2975
aS'kohlrabi (around trimmed'
p2976
aS'large carrots (around'
p2977
aS'garlic cloves'
p2978
aS'bay leaf'
p2979
aS'sprigs fresh thyme'
p2980
aS'water'
p2981
aS'salt and freshly ground black pepper'
p2982
aS'butter'
p2983
atp2984
tp2985
Rp2986
sS'Lamb steaks with anchovy butter, salsify and walnuts'
p2987
g2
(g3
g4
(S'http://www.bbc.co.uk/food/recipes/lambsteakswithanchov_87915'
p2988
S'Martin Blunos'
p2989
(lp2990
S'olive oil'
p2991
aS'garlic clove'
p2992
aS'x lamb leg steaks'
p2993
aS'salt and freshly ground black pepper'
p2994
aS'unsalted butter'
p2995
aS'anchovy essence'
p2996
aS'lemon'
p2997
aS'fresh anchovies'
p2998
aS'salsify'
p2999
aS'lemons'
p3000
aS'pints cold water'
p3001
aS'plain flour'
p3002
aS'salt'
p3003
aS'walnut halves'
p3004
aS'clarified butter'
p3005
aS'salt and freshly ground black pepper'
p3006
aS'walnut oil'
p3007
aS'sultanas'
p3008
aS'caster sugar'
p3009
aS'sherry vinegar'
p3010
aS'unsalted butter'
p3011
aS'chopped flatleaf parsley'
p3012
atp3013
tp3014
Rp3015
sS'Pumpkin and apple chutney'
p3016
g2
(g3
g4
(S'http://www.bbc.co.uk/food/recipes/ramona1_83522'
p3017
S'Pinki Sharma'
p3018
(lp3019
S'pumpkin'
p3020
aS'firm tomatoes'
p3021
aS'Bramley apples'
p3022
aS'onion'
p3023
aS'dried mixed fruit'
p3024
aS'soft light brown sugar'
p3025
aS'salt'
p3026
aS'ground mixed spice'
p3027
aS'ground black pepper'
p3028
aS'cider vinegar'
p3029
aS'fresh herbs'
p3030
atp3031
tp3032
Rp3033
sS'Winter vegetable colcannon'
p3034
g2
(g3
g4
(S'http://www.bbc.co.uk/food/recipes/wintervegetablecolca_73661'
p3035
S'Antony Worrall Thompson'
p3036
(lp3037
S'plain mashed potato'
p3038
aS'kale or savoy cabbage'
p3039
aS'carrots, peeled'
p3040
aS'double cream'
p3041
aS'milk'
p3042
aS'spring onions'
p3043
aS'butter'
p3044
atp3045
tp3046
Rp3047
sS'Plum pudding cocktail'
p3048
g2
(g3
g4
(S'http://www.bbc.co.uk/food/recipes/plum_pudding_cocktail_77949'
p3049
S'Wayne Collins'
p3050
(lp3051
S'plum, quartered'
p3052
aS'cognac'
p3053
aS'amaretto'
p3054
aS'plum liqueur'
p3055
aS'cinnamon syrup'
p3056
aS'freshly grated nutmeg'
p3057
atp3058
tp3059
Rp3060
sS'Roasted duck breast with cranberry chutney and celeriac mash'
p3061
g2
(g3
g4
(S'http://www.bbc.co.uk/food/recipes/roastedduckbreastwit_90793'
p3062
S'James Martin'
p3063
(lp3064
S'duck breasts'
p3065
aS'star anise'
p3066
aS'orange'
p3067
aS'ruby port'
p3068
aS'butter'
p3069
aS'winter greens'
p3070
aS'water'
p3071
aS'caster sugar'
p3072
aS'star anise'
p3073
aS'ground ginger'
p3074
aS'ground cinnamon'
p3075
aS'fresh cranberries'
p3076
aS'dried cranberries'
p3077
aS'ruby port'
p3078
aS'celeriac'
p3079
aS'potatoes'
p3080
aS'olive oil'
p3081
aS'butter'
p3082
atp3083
tp3084
Rp3085
sS'British seaside chowder with saffron'
p3086
g2
(g3
g4
(S'http://www.bbc.co.uk/food/recipes/british_seaside_chowder_59346'
p3087
S'James Martin'
p3088
(lp3089
S'white wine'
p3090
aS'mixed shellfish, such as cockles, clams, mussels and winkles'
p3091
aS'unsalted butter'
p3092
aS'shallot'
p3093
aS'garlic clove'
p3094
aS'fennel bulb'
p3095
aS'leek, white part only'
p3096
aS'waxy potatoes'
p3097
aS'pinches saffron strands'
p3098
aS'star anise'
p3099
aS'chicken stock'
p3100
aS'double cream'
p3101
aS'samphire'
p3102
aS'ripe tomatoes'
p3103
aS'shelled cooked whelks'
p3104
aS'finely chopped fresh chives'
p3105
aS'celery leaves'
p3106
aS'salt and freshly ground black pepper'
p3107
atp3108
tp3109
Rp3110
sS'Apple crumble'
p3111
g2
(g3
g4
(S'http://www.bbc.co.uk/food/recipes/apple_crumble_95357'
p3112
S'Lorraine Pascale'
p3113
(lp3114
S'unsalted butter'
p3115
aS'brown sugar'
p3116
aS'apples (a mixture of cooking and eating varieties), peeled, cored'
p3117
aS'plain flour'
p3118
aS'cold butter'
p3119
aS'ground cinnamon'
p3120
aS'demerara sugar'
p3121
aS'porridge oats'
p3122
atp3123
tp3124
Rp3125
sS'Beef, asparagus and mangetout stir fry'
p3126
g2
(g3
g4
(S'http://www.bbc.co.uk/food/recipes/beefasparagusandmang_85921'
p3127
S'Daniel Galmiche'
p3128
(lp3129
S'scotch beef fillet'
p3130
aS'sake'
p3131
aS'soy sauce'
p3132
aS'grated fresh ginger'
p3133
aS'soft brown sugar'
p3134
aS'garlic clove'
p3135
aS'small red chilli'
p3136
aS'asparagus'
p3137
aS'mangetout'
p3138
aS'sesame oil'
p3139
aS'salt and freshly ground black pepper'
p3140
aS'sesame seeds'
p3141
aS'sprigs fresh coriander'
p3142
atp3143
tp3144
Rp3145
sS'Sangria'
p3146
g2
(g3
g4
(S'http://www.bbc.co.uk/food/recipes/sangria_93847'
p3147
S'Jill Dupleix'
p3148
(lp3149
S'parts red wine'
p3150
aS'part orange juice'
p3151
aS'parts lemonade'
p3152
aS'ice'
p3153
aS'fresh mint'
p3154
aS'sliced fruit such as oranges and lemons'
p3155
atp3156
tp3157
Rp3158
sS"Goats' cheese with chicory orange jam"
p3159
g2
(g3
g4
(S'http://www.bbc.co.uk/food/recipes/goatscheesewithchico_83705'
p3160
S'James Martin'
p3161
(lp3162
S'butter'
p3163
aS'onion'
p3164
aS'clove garlic'
p3165
aS'chicory'
p3166
aS'oranges'
p3167
aS'caster sugar'
p3168
aS'dry white wine'
p3169
aS"small goats' cheese rounds"
p3170
aS'slices white bread'
p3171
aS'butter'
p3172
aS'apple'
p3173
aS'cooked beetroot'
p3174
aS'rocket salad'
p3175
aS'walnut halves'
p3176
aS'vinaigrette'
p3177
atp3178
tp3179
Rp3180
sS'Celeriac and apple soup with bacon and parsley'
p3181
g2
(g3
g4
(S'http://www.bbc.co.uk/food/recipes/celeriac_and_apple_soup_32322'
p3182
S'The Hairy Bikers'
p3183
(lp3184
S'(roughly eating apples'
p3185
aS'butter'
p3186
aS'sunflower oil'
p3187
aS'onions'
p3188
aS'celeriac (roughly'
p3189
aS'large carrot (roughly'
p3190
aS'garlic cloves'
p3191
aS'medium potatoes (roughly'
p3192
aS'small fresh thyme sprigs)'
p3193
aS'bay leaf'
p3194
aS'pints vegetable or chicken stock'
p3195
aS'flaked sea salt and freshly ground black pepper'
p3196
aS'sunflower oil'
p3197
aS'rashers rindless smoked streaky bacon'
p3198
aS'creme fraiche'
p3199
aS'milk'
p3200
aS'small flat leaf parsley'
p3201
atp3202
tp3203
Rp3204
sS'Vegetable and chorizo soup'
p3205
g2
(g3
g4
(S'http://www.bbc.co.uk/food/recipes/vegetable_and_chorizo_81634'
p3206
S'Sam and Mark'
p3207
(lp3208
S'olive oil'
p3209
aS'leek'
p3210
aS'large carrot'
p3211
aS'sweet potato'
p3212
aS'celery stalk'
p3213
aS'sea salt and freshly ground black pepper'
p3214
aS'ground cumin'
p3215
aS'x can chopped tomatoes'
p3216
aS'balsamic vinegar'
p3217
aS'small thyme'
p3218
aS'pint vegetable stock'
p3219
aS'green beans'
p3220
aS'raw chorizo sausage (about'
p3221
atp3222
tp3223
Rp3224
sS'Asparagus with pearl barley and bacon'
p3225
g2
(g3
g4
(S'http://www.bbc.co.uk/food/recipes/asparagus_with_pearl_43154'
p3226
S'Monica Galetti'
p3227
(lp3228
S'chicken stock'
p3229
aS'single cream'
p3230
aS'salt and freshly ground black pepper'
p3231
aS'butter'
p3232
aS'shallot'
p3233
aS'pearl barley'
p3234
aS'white wine'
p3235
aS'pint chicken stock'
p3236
aS'English asparagus'
p3237
aS'bacon lardons'
p3238
aS'cooked and shelled broad beans'
p3239
aS'tomatoes, skinned and seeds removed'
p3240
atp3241
tp3242
Rp3243
sS'Stir-fried crab with green Kampot pepper'
p3244
g2
(g3
g4
(S'http://www.bbc.co.uk/food/recipes/stirfriedcrabwithgre_91769'
p3245
S'Rick Stein'
p3246
(lp3247
S'raw or cooked whole crabs (such as brown crab'
p3248
aS'Kampot green peppercorn vines (available in Asian grocers or online), or green peppercorns in brine'
p3249
aS'dark soy sauce'
p3250
aS'palm sugar (available from Asian grocers; substitute golden caster sugar if unavailable)'
p3251
aS'vegetable oil'
p3252
aS'finely chopped garlic'
p3253
aS'fish sauce'
p3254
aS'spring onions'
p3255
atp3256
tp3257
Rp3258
sS'Christmas pudding sundae'
p3259
g2
(g3
g4
(S'http://www.bbc.co.uk/food/recipes/christmas_pudding_sundae_77748'
p3260
S'Nigel Slater'
p3261
(lp3262
S'a little butter (or leftover brandy butter)'
p3263
aS'leftover cooked Christmas pudding'
p3264
aS'of brandy'
p3265
aS'vanilla ice cream'
p3266
atp3267
tp3268
Rp3269
sS'Pan-fried chicken breast with Jerusalem artichoke risotto and roasted vegetables'
p3270
g2
(g3
g4
(S'http://www.bbc.co.uk/food/recipes/panfriedchickenbreas_84846'
p3271
S'Mark Sargeant'
p3272
(lp3273
S'Label Anglaise chicken'
p3274
aS'garlic bulb'
p3275
aS'fresh thyme'
p3276
aS'salt and freshly ground black pepper'
p3277
aS'chicken stock'
p3278
aS'olive oil'
p3279
aS'slightly salted butter'
p3280
aS'risotto rice'
p3281
aS'Jerusalem artichokes'
p3282
aS'butter'
p3283
aS'double cream'
p3284
aS'parmesan'
p3285
aS'fresh chives'
p3286
aS'baby carrots'
p3287
aS'baby turnips'
p3288
aS'fresh rosemary'
p3289
aS'garlic cloves'
p3290
aS'salt and freshly ground black pepper'
p3291
aS'extra virgin olive oil'
p3292
aS'clear honey'
p3293
aS'sherry vinegar'
p3294
aS'small punnet pea shoots'
p3295
atp3296
tp3297
Rp3298
sS'Strawberry souffle with crumble topping and clotted cream'
p3299
g2
(g3
g4
(S'http://www.bbc.co.uk/food/recipes/strawberry_souffl_with_51589'
p3300
S'Michel Roux Jr.'
p3301
(lp3302
S'strawberries'
p3303
aS'demerara sugar'
p3304
aS'lemon'
p3305
aS'kirsch'
p3306
aS'cornflour'
p3307
aS'free-range egg whites'
p3308
aS'caster sugar'
p3309
aS'clotted cream'
p3310
aS'chopped pistachios'
p3311
aS'nibbed almonds'
p3312
aS'demerara sugar'
p3313
aS'rolled oats'
p3314
aS'desiccated coconut'
p3315
atp3316
tp3317
Rp3318
sS'Fish soup'
p3319
g2
(g3
g4
(S'http://www.bbc.co.uk/food/recipes/fishsoup_93674'
p3320
S'Raymond Blanc'
p3321
(lp3322
S'grey mullet, filleted and cut into large pieces'
p3323
aS'red mullet, filleted and cut into large pieces'
p3324
aS'gurnard, filleted and cut into large pieces'
p3325
aS'olive oil'
p3326
aS'saffron powder'
p3327
aS'garlic cloves, peeled'
p3328
aS'sprigs fresh thyme'
p3329
aS'pinches black pepper'
p3330
aS'light olive oil'
p3331
aS'onion, peeled'
p3332
aS'carrot, peeled'
p3333
aS'fennel bulb'
p3334
aS'sprigs fresh thyme'
p3335
aS'fresh bay leaves'
p3336
aS'garlic cloves, peeled'
p3337
aS'ripe tomatoes'
p3338
aS'sachet saffron powder'
p3339
aS'white wine'
p3340
aS'tomato puree'
p3341
aS'pint water'
p3342
aS'salt and freshly ground black pepper'
p3343
aS'pastis'
p3344
aS'free-range egg yolks'
p3345
aS'crushed garlic'
p3346
aS'olive oil'
p3347
aS'pinches cayenne pepper'
p3348
aS'sachet saffron powder'
p3349
aS'x bread cubes'
p3350
aS'French cheese, such as Comte or Gruyere'
p3351
aS'chopped fresh flatleaf parsley'
p3352
atp3353
tp3354
Rp3355
sS'Valentine cupcakes'
p3356
g2
(g3
g4
(S'http://www.bbc.co.uk/food/recipes/valentinecupcake_93564'
p3357
S'Simon Rimmer'
p3358
(lp3359
S'unsalted butter'
p3360
aS'caster sugar'
p3361
aS'free-range eggs'
p3362
aS'self-raising flour'
p3363
aS'raspberries'
p3364
aS'passion fruit'
p3365
aS'a little milk'
p3366
aS'icing sugar'
p3367
aS'butter'
p3368
aS'vanilla pod'
p3369
aS'drops pink liquid food colouring'
p3370
aS'milk'
p3371
aS'hundreds and thousands'
p3372
atp3373
tp3374
Rp3375
sS'Pasta con le sarde (pasta with sardines)'
p3376
g2
(g3
g4
(S'http://www.bbc.co.uk/food/recipes/pasta_con_le_sarde_pasta_79438'
p3377
S'Matthew Fort'
p3378
(lp3379
S'fresh, wild fennel'
p3380
aS'olive oil'
p3381
aS'brown onion'
p3382
aS'anchovy fillets in oil'
p3383
aS'fresh sardines, scaled'
p3384
aS'strattu or tbsp tomato puree'
p3385
aS'currants'
p3386
aS'pine nuts'
p3387
aS'pinches saffron thread'
p3388
aS'bucatini pasta (or spaghetti)'
p3389
aS'breadcrumbs'
p3390
aS'salt and freshly ground black pepper'
p3391
atp3392
tp3393
Rp3394
sS'Irish fish chowder with soda bread'
p3395
g2
(g3
g4
(S'http://www.bbc.co.uk/food/recipes/irish_fish_chowder_with_08587'
p3396
S'John Torode'
p3397
(lp3398
S'wholemeal flour'
p3399
aS'strong white flour'
p3400
aS'heaped bicarbonate of soda'
p3401
aS'salt'
p3402
aS'buttermilk'
p3403
aS'large free-range egg'
p3404
aS'honey'
p3405
aS'large potato'
p3406
aS'un-dyed smoked haddock fillets'
p3407
aS'bay leaf'
p3408
aS'shallot'
p3409
aS'full-fat milk'
p3410
aS'unsalted butter'
p3411
aS'onion'
p3412
aS'clove garlic'
p3413
aS'sweetcorn kernels (thawed'
p3414
aS'runner beans'
p3415
aS'scallops'
p3416
aS'steamed clams'
p3417
aS'pollock fillet'
p3418
aS'raw king prawns'
p3419
aS'chopped fresh flat-leaf parsley'
p3420
aS'freshly ground black pepper'
p3421
atp3422
tp3423
Rp3424
sS'Oysters Rockefeller'
p3425
g2
(g3
g4
(S'http://www.bbc.co.uk/food/recipes/oystersrockefeller_85977'
p3426
S'Alex Kingston'
p3427
(lp3428
S'fresh oysters in their shell'
p3429
aS'butter'
p3430
aS'small onion'
p3431
aS'chopped fresh parsley'
p3432
aS'spinach'
p3433
aS'fine breadcrumbs'
p3434
atp3435
tp3436
Rp3437
sS'Butternut squash and root veg hotpot'
p3438
g2
(g3
g4
(S'http://www.bbc.co.uk/food/recipes/butternut_squash_and_46813'
p3439
S'Justine Pattison'
p3440
(lp3441
S'sunflower oil'
p3442
aS'small butternut squash (approximately scrubbed, deseeded'
p3443
aS'onions'
p3444
aS'carrots, peeled'
p3445
aS'parsnips, peeled'
p3446
aS'plain flour'
p3447
aS'tin chopped tomatoes'
p3448
aS'tomato puree'
p3449
aS'dried chilli flakes (optional)'
p3450
aS'pesto (optional)'
p3451
aS'hot vegetable stock (made with stock cube)'
p3452
aS'young spinach leaves (optional)'
p3453
aS'salt and freshly ground black pepper'
p3454
aS'self-raising flour'
p3455
aS'frozen butter (or shredded vegetarian suet)'
p3456
aS'cold water'
p3457
aS'salt and freshly ground black pepper'
p3458
atp3459
tp3460
Rp3461
sS'The ultimate fish pie'
p3462
g2
(g3
g4
(S'http://www.bbc.co.uk/food/recipes/theultimatefishpie_87821'
p3463
S'The Hairy Bikers'
p3464
(lp3465
S'potatoes (such as King Edwards'
p3466
aS'salt and white pepper'
p3467
aS'butter'
p3468
aS'grated gruyere cheese'
p3469
aS'pint fish stock'
p3470
aS'dry vermouth'
p3471
aS'onion'
p3472
aS'small bulb of fennel'
p3473
aS'small carrot'
p3474
aS'small stick of celery'
p3475
aS'bay leaf'
p3476
aS'saffron'
p3477
aS'white fish (such as haddock, hake'
p3478
aS'smoked haddock'
p3479
aS'salmon'
p3480
aS'raw prawns'
p3481
aS'unsalted butter'
p3482
aS'plain flour'
p3483
aS'full-fat milk'
p3484
aS'large parsley'
p3485
aS'double cream'
p3486
aS'salt and white pepper'
p3487
aS'butter'
p3488
aS'leaf spinach'
p3489
aS'hard-boiled eggs'
p3490
aS'ciabatta crumbs'
p3491
aS'grated parmesan cheese'
p3492
atp3493
tp3494
Rp3495
sS'Crab and leek tart'
p3496
g2
(g3
g4
(S'http://www.bbc.co.uk/food/recipes/british_crab_and_leek_40568'
p3497
S'The Hairy Bikers'
p3498
(lp3499
S'plain flour'
p3500
aS'wholemeal flour'
p3501
aS'cold butter'
p3502
aS'free-range egg'
p3503
aS'knob of butter'
p3504
aS'medium leeks, trimmed'
p3505
aS'butter'
p3506
aS'half-fat creme fraiche'
p3507
aS'free-range eggs'
p3508
aS'fresh brown crab meat'
p3509
aS'sea salt flakes'
p3510
aS'fresh white crab meat'
p3511
aS'mature cheddar'
p3512
aS'freshly ground black pepper'
p3513
atp3514
tp3515
Rp3516
sS'Mackerel on toast with salted cucumber and horseradish'
p3517
g2
(g3
g4
(S'http://www.bbc.co.uk/food/recipes/mackerelontoastwiths_90005'
p3518
S'Valentine Warner'
p3519
(lp3520
S'cucumber, peeled'
p3521
aS'salt'
p3522
aS'grated fresh horseradish'
p3523
aS'heaped creme fraiche'
p3524
aS'English mustard powder'
p3525
aS'fresh mackerel fillets'
p3526
aS'salt and freshly ground black pepper'
p3527
aS'knob of butter'
p3528
aS'slices soda bread, toasted'
p3529
aS'small red onion'
p3530
aS'small lemon'
p3531
atp3532
tp3533
Rp3534
sS'Fresh plum, raspberry and pistachio cake'
p3535
g2
(g3
g4
(S'http://www.bbc.co.uk/food/recipes/fresh_plum_raspberry_and_69953'
p3536
S'Charles Dance'
p3537
(lp3538
S'shelled pistachios'
p3539
aS'butter'
p3540
aS'caster sugar'
p3541
aS'free-range eggs'
p3542
aS'self-raising flour'
p3543
aS'lemon'
p3544
aS'fresh plums, stones removed'
p3545
aS'raspberries'
p3546
aS'icing sugar'
p3547
aS'creme fraiche'
p3548
atp3549
tp3550
Rp3551
sS'Pea and mint risotto'
p3552
g2
(g3
g4
(S'http://www.bbc.co.uk/food/recipes/pea_and_mint_risotto_85063'
p3553
S'Alex Jones'
p3554
(lp3555
S'olive oil'
p3556
aS'onion'
p3557
aS'garlic clove'
p3558
aS'risotto rice'
p3559
aS'white wine'
p3560
aS'about pint hot chicken stock'
p3561
aS'fresh peas or frozen peas'
p3562
aS'small fresh mint'
p3563
aS'double cream'
p3564
aS'butter'
p3565
aS'salt and freshly ground black pepper'
p3566
aS'two handfuls rocket leaves'
p3567
aS'drizzle olive oil'
p3568
aS'drizzle balsamic vinegar'
p3569
aS'parmesan shavings'
p3570
atp3571
tp3572
Rp3573
sS'Clementine cake with passionfruit and limoncello ice cream'
p3574
g2
(g3
g4
(S'http://www.bbc.co.uk/food/recipes/clementine_cake_with_01055'
p3575
S'Kirsty Wark'
p3576
(lp3577
S'clementines (about'
p3578
aS'butter'
p3579
aS'free-range eggs'
p3580
aS'caster sugar'
p3581
aS'ground almonds'
p3582
aS'heaped baking powder'
p3583
aS'clementines'
p3584
aS'caster sugar'
p3585
aS'orange marmalade'
p3586
aS'reserved orange peel'
p3587
aS'granulated sugar'
p3588
aS'water'
p3589
aS'passion fruit'
p3590
aS'double cream'
p3591
aS'full-fat milk'
p3592
aS'limoncello'
p3593
aS'caster sugar'
p3594
aS'freshly-squeezed orange juice, from about oranges'
p3595
aS'caster sugar'
p3596
aS'star anise'
p3597
aS'double cream'
p3598
aS'icing sugar'
p3599
aS'vanilla pod, split'
p3600
aS'lime juice'
p3601
atp3602
tp3603
Rp3604
sS'Bellini cocktail'
p3605
g2
(g3
g4
(S'http://www.bbc.co.uk/food/recipes/bellinicocktail_67941'
p3606
S"Jo' Pratt"
p3607
(lp3608
S'ripe peaches, peeled, halved and stone removed'
p3609
aS'chilled champagne or sparkling wine'
p3610
aS'chilled champagne glasses'
p3611
atp3612
tp3613
Rp3614
sS'Creme de vanille de bourbon with poached rhubarb and blood orange sorbet'
p3615
g2
(g3
g4
(S'http://www.bbc.co.uk/food/recipes/cremedevanilledebour_91183'
p3616
S'Galton Blackiston'
p3617
(lp3618
S'gelatine leaves'
p3619
aS'double cream'
p3620
aS'caster sugar'
p3621
aS'vanilla pods, split'
p3622
aS'caster sugar'
p3623
aS'water'
p3624
aS'freshly squeezed blood orange juice'
p3625
aS'orange liqueur (optional)'
p3626
aS'caster sugar'
p3627
aS'water'
p3628
aS'rhubarb stalks'
p3629
aS'piece root ginger'
p3630
atp3631
tp3632
Rp3633
sS'Artichoke with smoked bacon mayonnaise'
p3634
g2
(g3
g4
(S'http://www.bbc.co.uk/food/recipes/artichoke_with_smoked_62303'
p3635
S'James Martin'
p3636
(lp3637
S'globe artichokes'
p3638
aS'lemons'
p3639
aS'salt'
p3640
aS'plain flour'
p3641
aS'rashers smoked streaky bacon'
p3642
aS'free-range egg yolks'
p3643
aS'Dijon mustard'
p3644
aS'rapeseed oil'
p3645
aS'salt and freshly ground black pepper'
p3646
atp3647
tp3648
Rp3649
sS'Salmon and sea bass ceviche'
p3650
g2
(g3
g4
(S'http://www.bbc.co.uk/food/recipes/salmon_and_sea_bass_14216'
p3651
S'The Hairy Bikers'
p3652
(lp3653
S'skinless salmon fillets'
p3654
aS'medium skinless sea bass fillets'
p3655
aS'red onion, peeled'
p3656
aS'large red chillies, stalks and seeds removed'
p3657
aS'red pepper, stalk and seeds removed'
p3658
aS'limes, juice and zest'
p3659
aS'cayenne pepper'
p3660
aS'extra virgin olive oil'
p3661
aS'fresh coriander leaves'
p3662
aS'ripe avocados, peeled, stone removed'
p3663
aS'mixed baby salad leaves'
p3664
atp3665
tp3666
Rp3667
sS'Green tomato chutney'
p3668
g2
(g3
g4
(S'http://www.bbc.co.uk/food/recipes/green_tomato_chutney_41573'
p3669
S'James Martin'
p3670
(lp3671
S'light brown sugar'
p3672
aS'white wine vinegar'
p3673
aS'shallot, peeled'
p3674
aS'garlic clove, peeled'
p3675
aS'piece fresh root ginger, peeled'
p3676
aS'red chilli'
p3677
aS'sultanas'
p3678
aS'green tomatoes'
p3679
atp3680
tp3681
Rp3682
sS'Homemade lemonade'
p3683
g2
(g3
g4
(S'http://www.bbc.co.uk/food/recipes/homemade_lemonade_12580'
p3684
S'Jayne Rawlings'
p3685
(lp3686
S'lemons, preferably organic, well scrubbed, thinly sliced'
p3687
aS'citric acid'
p3688
aS'caster sugar'
p3689
aS'pints boiling water'
p3690
atp3691
tp3692
Rp3693
sS'Vanilla baked cheesecake with blackberries'
p3694
g2
(g3
g4
(S'http://www.bbc.co.uk/food/recipes/vanilla_baked_cheesecake_59336'
p3695
S'Glynn Purnell'
p3696
(lp3697
S'digestive biscuits'
p3698
aS'butter'
p3699
aS'blackberries'
p3700
aS'caster sugar'
p3701
aS'vanilla pod'
p3702
aS'full-fat cream cheese'
p3703
aS'free-range eggs'
p3704
aS'lemon'
p3705
aS'double cream'
p3706
aS'plain flour'
p3707
aS'caster sugar'
p3708
aS'honey'
p3709
aS'liquid glucose'
p3710
aS'caster sugar'
p3711
aS'bicarbonate of soda'
p3712
aS'freshly ground black pepper (optional)'
p3713
atp3714
tp3715
Rp3716
sS'Grilled mackerel with new potatoes and salad'
p3717
g2
(g3
g4
(S'http://www.bbc.co.uk/food/recipes/grilledmackerelwithj_86201'
p3718
S'James Martin'
p3719
(lp3720
S'new potatoes, such as Jersey Royals'
p3721
aS'salt'
p3722
aS'mackerel fillets'
p3723
aS'wholegrain mustard'
p3724
aS'salt and freshly ground black pepper'
p3725
aS'English mustard'
p3726
aS'white wine vinegar'
p3727
aS'rapeseed oil'
p3728
aS'squeeze lemon juice'
p3729
aS'Little Gem lettuces'
p3730
atp3731
tp3732
Rp3733
sS'Broad bean and feta frittata'
p3734
g2
(g3
g4
(S'http://www.bbc.co.uk/food/recipes/fruitalia_91683'
p3735
S'Valentine Warner'
p3736
(lp3737
S'small broad beans'
p3738
aS'olive oil'
p3739
aS'small red onion, peeled'
p3740
aS'salt and freshly ground black pepper'
p3741
aS'large free-range eggs'
p3742
aS'feta cheese'
p3743
aS'small fresh mint'
p3744
atp3745
tp3746
Rp3747
sS'Rhubarb tarts with rhubarb ice cream'
p3748
g2
(g3
g4
(S'http://www.bbc.co.uk/food/recipes/rhubarbtartwithrhuba_91430'
p3749
S'James Martin'
p3750
(lp3751
S'rhubarb stems, trimmed'
p3752
aS'caster sugar'
p3753
aS'water'
p3754
aS'free-range egg yolks'
p3755
aS'pint full-fat milk'
p3756
aS'pint double cream'
p3757
aS'vanilla pod, split'
p3758
aS'rhubarb stems, trimmed'
p3759
aS'pint cider'
p3760
aS'golden syrup'
p3761
aS'five-spice powder'
p3762
aS'vanilla pod, split'
p3763
aS'full-fat milk'
p3764
aS'vanilla pod'
p3765
aS'caster sugar'
p3766
aS'free-range egg yolks, plus free-range egg'
p3767
aS'heaped cornflour'
p3768
aS'all butter ready-rolled puff pastry'
p3769
aS'plain flour'
p3770
atp3771
tp3772
Rp3773
sS'Damson pies'
p3774
g2
(g3
g4
(S'http://www.bbc.co.uk/food/recipes/damson_pies_35185'
p3775
S'Clarissa Dickson Wright'
p3776
(lp3777
S'plain flour'
p3778
aS'salt'
p3779
aS'pork lard'
p3780
aS'water'
p3781
aS'damsons'
p3782
aS'caster sugar'
p3783
aS'slices membrillo or damson cheese'
p3784
aS'clotted cream or creme fraiche'
p3785
atp3786
tp3787
Rp3788
sS'Roasted courgettes with chilli scrambled eggs'
p3789
g2
(g3
g4
(S'http://www.bbc.co.uk/food/recipes/roastedcourgetteswit_76987'
p3790
S'James Martin'
p3791
(lp3792
S'baby courgettes'
p3793
aS'thyme'
p3794
aS'dried porcini mushrooms, soaked in water until soft'
p3795
aS'olive oil'
p3796
aS'salt and freshly ground black pepper'
p3797
aS'butter'
p3798
aS'free-range eggs'
p3799
aS'chilli flakes'
p3800
aS'saffron'
p3801
aS'mushroom water'
p3802
aS'double cream'
p3803
atp3804
tp3805
Rp3806
sS'Roast chicken with beetroot and halloumi salad'
p3807
g2
(g3
g4
(S'http://www.bbc.co.uk/food/recipes/roast_chicken_with_52211'
p3808
S'James Martin'
p3809
(lp3810
S'cumin seeds'
p3811
aS'ground caraway seeds'
p3812
aS'red chilli'
p3813
aS'sweet smoked paprika'
p3814
aS'garlic cloves'
p3815
aS'tomato puree'
p3816
aS'red wine vinegar'
p3817
aS'large chicken'
p3818
aS'olive oil'
p3819
aS'salt and pepper'
p3820
aS'bulgur wheat'
p3821
aS'beetroot juice'
p3822
aS'olive oil'
p3823
aS'halloumi'
p3824
aS'cooked beetroot'
p3825
aS'shelled pistachios'
p3826
aS'small mint'
p3827
aS'small coriander'
p3828
aS'pomegranate'
p3829
aS'lemon'
p3830
aS'olive oil'
p3831
atp3832
tp3833
Rp3834
sS'Sea bass roasted with rosemary and lemon'
p3835
g2
(g3
g4
(S'http://www.bbc.co.uk/food/recipes/seabassroastedwithro_90285'
p3836
S'Mitch Tonks'
p3837
(lp3838
S'x sea bass'
p3839
aS'fresh rosemary sprigs'
p3840
aS'extra virgin olive oil'
p3841
aS'sea salt'
p3842
aS'lemon'
p3843
aS'extra virgin olive oil'
p3844
atp3845
tp3846
Rp3847
sS'Italian-style stuffed marrow'
p3848
g2
(g3
g4
(S'http://www.bbc.co.uk/food/recipes/italian-style_stuffed_63676'
p3849
S'The Hairy Bikers'
p3850
(lp3851
S'sunflower oil'
p3852
aS'onion'
p3853
aS'medium carrots'
p3854
aS'celery stalks'
p3855
aS'garlic cloves'
p3856
aS'Italian-style sausages'
p3857
aS'dried chilli flakes'
p3858
aS'dried oregano'
p3859
aS'caster sugar'
p3860
aS'plain flour'
p3861
aS'red wine'
p3862
aS'beef stock'
p3863
aS'x can cherry tomatoes'
p3864
aS'bay leaf'
p3865
aS'marrow'
p3866
aS'butter'
p3867
aS'plain flour'
p3868
aS'milk'
p3869
aS'finely grated parmesan'
p3870
aS'mozzarella'
p3871
atp3872
tp3873
Rp3874
sS'Langoustines with summer vegetable stew'
p3875
g2
(g3
g4
(S'http://www.bbc.co.uk/food/recipes/langoustineswithsumm_86088'
p3876
S'Nick Nairn'
p3877
(lp3878
S'large onion'
p3879
aS'leek'
p3880
aS'celery sticks'
p3881
aS'fennel bulb'
p3882
aS'large carrots'
p3883
aS'head of garlic'
p3884
aS'white peppercorns'
p3885
aS'coriander seeds'
p3886
aS'star anise'
p3887
aS'bay leaf'
p3888
aS'mixed herbs, such as chervil, tarragon, parsley'
p3889
aS'pint dry white wine'
p3890
aS'white wine vinegar'
p3891
aS'caster sugar'
p3892
aS'ripe plum tomatoes'
p3893
aS'of Maldon sea salt or other sea salt'
p3894
aS'Tabasco sauce'
p3895
aS'Worcestershire sauce'
p3896
aS'basil leaves'
p3897
aS'live langoustines'
p3898
aS'rosemary sprigs'
p3899
aS'butter'
p3900
aS'small carrots'
p3901
aS'garlic clove'
p3902
aS'baby leeks'
p3903
aS'small courgette'
p3904
aS'mangetout'
p3905
aS'freshly shelled peas'
p3906
aS'finely chopped flatleaf parsley'
p3907
aS'spring onions'
p3908
aS'cherry tomatoes'
p3909
aS'lemon'
p3910
aS'chervil leaves'
p3911
aS'a few chives'
p3912
aS'basil leaves'
p3913
atp3914
tp3915
Rp3916
sS'Fresh oysters, oysters Mornay and Essex cockle chowder'
p3917
g2
(g3
g4
(S'http://www.bbc.co.uk/food/recipes/freshoystersoystersm_92336'
p3918
S'The Hairy Bikers'
p3919
(lp3920
S'unsalted butter'
p3921
aS'olive oil'
p3922
aS'rashers streaky bacon'
p3923
aS'large onion, peeled'
p3924
aS'dry white wine'
p3925
aS'cooked picked cockles, rinsed thoroughly (or raw cockles, in the shells'
p3926
aS'floury potatoes, such as Maris Piper or King Edward'
p3927
aS'milk'
p3928
aS'chopped fresh curly-leaved parsley'
p3929
aS'chopped fresh thyme leaves'
p3930
aS'double cream'
p3931
aS'sea salt flakes and freshly ground white pepper'
p3932
aS'unsalted butter'
p3933
aS'plain flour'
p3934
aS'full-fat milk'
p3935
aS'strong cheddar cheese'
p3936
aS'fresh, good-quality oysters, shucked'
p3937
aS'chopped fresh curly-leaved parsley'
p3938
aS'red wine vinegar'
p3939
aS'finely chopped shallots'
p3940
aS'native or rock oysters (to taste), shucked'
p3941
aS'Tabasco sauce'
p3942
aS'Worcestershire sauce'
p3943
aS'lemon'
p3944
aS'crushed ice'
p3945
aS'buttered sourdough bread'
p3946
atp3947
tp3948
Rp3949
sS'Sweet-and-sour turkey with egg-fried rice'
p3950
g2
(g3
g4
(S'http://www.bbc.co.uk/food/recipes/sweet-and-sour_turkey_59017'
p3951
S'Brian Turner'
p3952
(lp3953
S'dry sherry'
p3954
aS'light soy sauce'
p3955
aS'sesame oil'
p3956
aS'salt'
p3957
aS'cooked leftover turkey'
p3958
aS'vegetable oil'
p3959
aS'free-range egg'
p3960
aS'cornflour'
p3961
aS'pint chicken stock'
p3962
aS'dark soy sauce'
p3963
aS'sesame oil'
p3964
aS'cider vinegar'
p3965
aS'tomato ketchup'
p3966
aS'green peppers, stalk and seeds removed'
p3967
aS'spring onions, trimmed'
p3968
aS'juice from a satsuma'
p3969
aS'cornflour'
p3970
aS'vegetable oil'
p3971
aS'cooked basmati rice'
p3972
aS'free-range eggs'
p3973
aS'spring onions, trimmed'
p3974
aS'soy sauce'
p3975
atp3976
tp3977
Rp3978
sS'Baked aubergine rolls filled with mozzarella'
p3979
g2
(g3
g4
(S'http://www.bbc.co.uk/food/recipes/bakedauberginerollsf_71302'
p3980
S'Gennaro Contaldo'
p3981
(lp3982
S'large aubergine'
p3983
aS'plain flour'
p3984
aS'eggs'
p3985
aS'olive oil for frying'
p3986
aS'parmesan cheese (or a similar vegetarian hard cheese)'
p3987
aS'large fresh basil leaves'
p3988
aS'mozzarella cheese'
p3989
aS'salt'
p3990
aS'freshly ground black pepper'
p3991
aS'extra virgin olive oil'
p3992
aS'garlic clove'
p3993
aS'small onion'
p3994
aS'celery stalk'
p3995
aS'tin of plum tomatoes'
p3996
aS'leafy green salad'
p3997
atp3998
tp3999
Rp4000
sS'Salt-crust baked celariac with creme fraiche'
p4001
g2
(g3
g4
(S'http://www.bbc.co.uk/food/recipes/salt-crust_baked_48801'
p4002
S'James Martin'
p4003
(lp4004
S'strong white bread flour'
p4005
aS'fine sea salt'
p4006
aS'egg whites'
p4007
aS'large celeriac'
p4008
aS'creme fraiche'
p4009
aS'extra virgin olive oil'
p4010
aS'freshly ground black pepper'
p4011
aS'finely chopped fresh chives'
p4012
aS'watercress'
p4013
aS'chive flowers (optional)'
p4014
atp4015
tp4016
Rp4017
sS'Aromatic wok fried beans'
p4018
g2
(g3
g4
(S'http://www.bbc.co.uk/food/recipes/aromatic_wok_fried_beans_61020'
p4019
S'Gok Wan'
p4020
(lp4021
S'groundnut oil'
p4022
aS'garlic cloves'
p4023
aS'a fresh red chilli'
p4024
aS'piece of fresh ginger'
p4025
aS'spring onions'
p4026
aS'water chestnuts'
p4027
aS'skinless peanuts'
p4028
aS'dried shrimps'
p4029
aS'Shaoxing rice wine or dry sherry'
p4030
aS'fine French beans'
p4031
aS'fish sauce'
p4032
aS'light soy sauce'
p4033
aS'of caster sugar'
p4034
aS'ground white pepper'
p4035
aS'sesame oil'
p4036
atp4037
tp4038
Rp4039
sS'Globe artichoke salad'
p4040
g2
(g3
g4
(S'http://www.bbc.co.uk/food/recipes/globeartichokesalad_90217'
p4041
S'Paul Merrett'
p4042
(lp4043
S'large globe artichoke per person'
p4044
aS'olive oil'
p4045
aS'shallots'
p4046
aS'head of garlic'
p4047
aS'sprigs fresh thyme'
p4048
aS'plum tomatoes'
p4049
aS'dry white wine'
p4050
aS'pint water'
p4051
aS'mixed mushrooms'
p4052
aS'olive oil'
p4053
aS'garlic cloves'
p4054
aS'lemon'
p4055
aS'sherry vinegar'
p4056
aS'extra virgin olive oil'
p4057
aS'grated parmesan'
p4058
aS'cracked black pepper'
p4059
aS'of rock salt'
p4060
aS'cloves garlic'
p4061
aS'cherry tomatoes, halved, drizzled with olive oil, sprinkled with garlic and thyme and cooked for one hour minutes in a low oven'
p4062
aS'selection of lettuce leaves such as Little Gem'
p4063
atp4064
tp4065
Rp4066
sS'Petalberry jam'
p4067
g2
(g3
g4
(S'http://www.bbc.co.uk/food/recipes/petalberry_jam_79158'
p4068
S'Gary Murdock and Pete Taylor'
p4069
(lp4070
S'strawberries, ideally Albion strawberries'
p4071
aS'jam sugar'
p4072
aS'lemon'
p4073
aS'food-grade scented rose'
p4074
aS'rosewater'
p4075
aS'knob butter (optional)'
p4076
atp4077
tp4078
Rp4079
sS'Pomegranate panna cotta with pomegranate and orange caramel'
p4080
g2
(g3
g4
(S'http://www.bbc.co.uk/food/recipes/pomegranatepanacotta_87819'
p4081
S'James Martin'
p4082
(lp4083
S'leaves gelatine'
p4084
aS'pomegranate juice'
p4085
aS'caster sugar'
p4086
aS'orange zest'
p4087
aS'double cream'
p4088
aS'pomegranate'
p4089
aS'oranges'
p4090
aS'pomegranate'
p4091
aS'caster sugar'
p4092
aS'pomegranate juice'
p4093
atp4094
tp4095
Rp4096
sS"Oyster po'boys"
p4097
g2
(g3
g4
(S'http://www.bbc.co.uk/food/recipes/oysterpoboys_80061'
p4098
S'The Hairy Bikers'
p4099
(lp4100
S'freshly shucked oysters'
p4101
aS'grapeseed oil or vegetable oil'
p4102
aS'small jar mayonnaise'
p4103
aS'chopped fresh tarragon'
p4104
aS'capers'
p4105
aS'finely chopped shallots'
p4106
aS'French mustard'
p4107
aS'Tabasco'
p4108
aS'tomato puree'
p4109
aS'lemon juice'
p4110
aS'red wine vinegar'
p4111
aS'cayenne pepper'
p4112
aS'horseradish sauce'
p4113
aS'cornmeal'
p4114
aS'ground cumin'
p4115
aS'ground fennel'
p4116
aS'cayenne pepper'
p4117
aS'salt and freshly ground black pepper'
p4118
aS'eggs'
p4119
aS'milk'
p4120
aS'French stick'
p4121
aS'butter'
p4122
aS'crisp lettuce, such as cos'
p4123
atp4124
tp4125
Rp4126
sS'Cranberry and Cumberland sauce'
p4127
g2
(g3
g4
(S'http://www.bbc.co.uk/food/recipes/cranberryandcumberla_70984'
p4128
S'Antony Worrall Thompson'
p4129
(lp4130
S'fresh cranberries'
p4131
aS'ruby port'
p4132
aS'caster sugar'
p4133
aS'fresh orange juice'
p4134
aS'corn flour'
p4135
aS'English mustard powder'
p4136
aS'lemon juice'
p4137
aS'of ground cloves'
p4138
aS'sultanas'
p4139
aS'flaked almonds'
p4140
aS'grated orange rind'
p4141
aS'grated lemon rind'
p4142
aS'salt'
p4143
atp4144
tp4145
Rp4146
sS'Chicken with forty cloves of garlic'
p4147
g2
(g3
g4
(S'http://www.bbc.co.uk/food/recipes/chicken_with_40_cloves_22211'
p4148
S'The Hairy Bikers'
p4149
(lp4150
S'shallots (small ones not banana shallots)'
p4151
aS'oven-ready fresh chicken'
p4152
aS'lemon'
p4153
aS'large bay leaf'
p4154
aS'finely chopped fresh thyme'
p4155
aS'butter'
p4156
aS'sunflower oil'
p4157
aS'garlic cloves (from bulbs)'
p4158
aS'vermouth'
p4159
aS'chicken stock (made with stock cube)'
p4160
aS'chopped fresh tarragon leaves'
p4161
aS'double cream or creme fraiche'
p4162
aS'flaked sea salt and freshly ground black pepper'
p4163
aS'baguette'
p4164
aS'medium floury potatoes'
p4165
aS'butter'
p4166
aS'rindless smoked streaky bacon rashers'
p4167
aS'fresh kale'
p4168
aS'spring onions'
p4169
aS'double cream'
p4170
aS'flaked sea salt and freshly ground black pepper'
p4171
atp4172
tp4173
Rp4174
sS'Pumpkin risotto'
p4175
g2
(g3
g4
(S'http://www.bbc.co.uk/food/recipes/pumpkinrisottowithcr_13723'
p4176
S'Hugh Fearnley-Whittingstall'
p4177
(lp4178
S'pint vegetable or chicken stock'
p4179
aS'small onion'
p4180
aS'fresh sage leaves'
p4181
aS'olive oil'
p4182
aS'arborio (risotto) rice'
p4183
aS'pumpkin or butternut squash'
p4184
aS'butter'
p4185
aS'salt and freshly ground black pepper'
p4186
aS'fresh sage leaves'
p4187
aS'sunflower oil'
p4188
aS'piece fresh Parmesan'
p4189
atp4190
tp4191
Rp4192
sS'Chicken and leek pie'
p4193
g2
(g3
g4
(S'http://www.bbc.co.uk/food/recipes/chickenandleekpie_90191'
p4194
S'Lesley Waters'
p4195
(lp4196
S'plain flour'
p4197
aS'salt'
p4198
aS'cold lard'
p4199
aS'cold butter'
p4200
aS'cold water'
p4201
aS'free-range egg'
p4202
aS'butter'
p4203
aS'flour'
p4204
aS'pint milk'
p4205
aS'double cream'
p4206
aS'Dijon mustard'
p4207
aS'chicken stock cube'
p4208
aS'large leeks'
p4209
aS'butter'
p4210
aS'crisp eating apples'
p4211
aS'bacon lardons, or streaky bacon'
p4212
aS'boneless chicken thighs'
p4213
aS'tarragon'
p4214
aS'freshly ground black pepper'
p4215
atp4216
tp4217
Rp4218
sS'Anatra con melagrana (duck with pomegranate) and sauteed escarole'
p4219
g2
(g3
g4
(S'http://www.bbc.co.uk/food/recipes/anatraconmelagranadu_84995'
p4220
S'Gennaro Contaldo'
p4221
(lp4222
S'skinless duck breasts'
p4223
aS'salt and freshly ground black pepper'
p4224
aS'plain flour'
p4225
aS'butter'
p4226
aS'olive oil'
p4227
aS'pomegranates'
p4228
aS'escarole'
p4229
aS'olive oil'
p4230
aS'garlic cloves'
p4231
atp4232
tp4233
Rp4234
sS'Beef Wellington with purple broccoli and jus'
p4235
g2
(g3
g4
(S'http://www.bbc.co.uk/food/recipes/beefwellingtonwithne_84172'
p4236
S'James Martin'
p4237
(lp4238
S'plain flour'
p4239
aS'very cold butter'
p4240
aS'salt'
p4241
aS'ice-cold water'
p4242
aS'free-range egg yolks, beaten'
p4243
aS'free-range eggs'
p4244
aS'plain flour'
p4245
aS'milk'
p4246
aS'knob of butter'
p4247
aS'butter'
p4248
aS'Portobello mushrooms'
p4249
aS'large leaf spinach'
p4250
aS'beef fillet'
p4251
aS'freshly ground black pepper'
p4252
aS'chicken liver pate'
p4253
aS'purple sprouting broccoli'
p4254
aS'olive oil'
p4255
aS'beef stock'
p4256
aS'red wine'
p4257
atp4258
tp4259
Rp4260
sS'Roasted quail with watermelon, spring onions, cobnuts and quail vinaigrette'
p4261
g2
(g3
g4
(S'http://www.bbc.co.uk/food/recipes/roastedquailwithwate_86956'
p4262
S'Marcus Wareing'
p4263
(lp4264
S'chicken stock'
p4265
aS'sprigs thyme'
p4266
aS'bulb garlic'
p4267
aS'quails'
p4268
aS'pomace oil or good quality olive oil'
p4269
aS'unsalted butter'
p4270
aS'cobnuts, shelled, finely chopped'
p4271
aS'olive oil'
p4272
aS'quail legs (removed from the quail)'
p4273
aS'large shallots'
p4274
aS'sprigs fresh thyme'
p4275
aS'sprigs fresh rosemary'
p4276
aS'approximately brown chicken stock'
p4277
aS'extra virgin olive oil'
p4278
aS'white wine vinegar'
p4279
aS'salt and freshly ground black pepper'
p4280
aS'butter'
p4281
aS'garlic clove'
p4282
aS'bay leaf'
p4283
aS'spring onions'
p4284
aS'chicken stock'
p4285
aS'slice watermelon, peel removed'
p4286
aS'olive oil'
p4287
aS'freshly ground black pepper'
p4288
atp4289
tp4290
Rp4291
sS'Stuffed trout and purple sprouting broccoli'
p4292
g2
(g3
g4
(S'http://www.bbc.co.uk/food/recipes/troteripieneelegates_86355'
p4293
S'Gennaro Contaldo'
p4294
(lp4295
S'hazelnuts'
p4296
aS'almonds'
p4297
aS'pine nuts'
p4298
aS'canned anchovy fillets in oil'
p4299
aS'garlic clove'
p4300
aS'capers in brine'
p4301
aS'free-range eggs'
p4302
aS'grissini (Italian breadsticks)'
p4303
aS'fresh mint'
p4304
aS'parmesan cheese'
p4305
aS'lemon'
p4306
aS'salt and freshly ground black pepper'
p4307
aS'whole trout, each about scaled, gutted'
p4308
aS'butter'
p4309
aS'salt and freshly ground black pepper'
p4310
aS'purple sprouting broccoli'
p4311
aS'olive oil'
p4312
aS'cloves garlic (or to taste)'
p4313
aS'lemon'
p4314
atp4315
tp4316
Rp4317
sS'Oxtail curry with pink grapefruit chutney'
p4318
g2
(g3
g4
(S'http://www.bbc.co.uk/food/recipes/oxtail_curry_with_pink_03375'
p4319
S'Hardeep Singh Kohli'
p4320
(lp4321
S'vegetable oil'
p4322
aS'cumin seeds'
p4323
aS'star anise'
p4324
aS'green cardamom pods'
p4325
aS'black cardamom pod'
p4326
aS'black peppercorns'
p4327
aS'large red onions'
p4328
aS'garlic cloves'
p4329
aS'Scotch bonnet chilli, seeds removed'
p4330
aS'piece root ginger'
p4331
aS'orange'
p4332
aS'tomato puree'
p4333
aS'ground turmeric'
p4334
aS'garam masala'
p4335
aS'ground coriander'
p4336
aS'salt and freshly ground pepper'
p4337
aS'large oxtail pieces'
p4338
aS'passata'
p4339
aS'bay leaves'
p4340
aS'small finely chopped coriander leaves'
p4341
aS'plain basmati rice'
p4342
aS'pink grapefruit'
p4343
aS'red onion'
p4344
aS'red chilli, seeds removed'
p4345
aS'small mint leaves'
p4346
aS'small coriander, stalks finely chopped'
p4347
aS'limes'
p4348
atp4349
tp4350
Rp4351
sS'Delice au cassis'
p4352
g2
(g3
g4
(S'http://www.bbc.co.uk/food/recipes/deliceaucassis_86299'
p4353
S'James Martin'
p4354
(lp4355
S'sugar'
p4356
aS'water'
p4357
aS'liquid glucose'
p4358
aS'blackcurrants'
p4359
aS'sorbet syrup (see above)'
p4360
aS'sugar'
p4361
aS'water'
p4362
aS'free-range egg white'
p4363
aS'gelatine leaves'
p4364
aS'cold water'
p4365
aS'blackcurrant puree (see above)'
p4366
aS'powdered milk'
p4367
aS'vanilla pod'
p4368
aS'medium free-range egg yolks'
p4369
aS'caster sugar'
p4370
aS'Italian meringue (see above)'
p4371
aS'creme de cassis'
p4372
aS'double cream'
p4373
aS'ready-made round sponge flan base'
p4374
aS'sorbet syrup (see above)'
p4375
aS'blackcurrant puree (see above)'
p4376
aS'gelatine leaves'
p4377
aS'cold water'
p4378
aS'sorbet syrup (see above)'
p4379
aS'blackcurrant puree (see above)'
p4380
atp4381
tp4382
Rp4383
sS'Peach and blueberry streusel cake'
p4384
g2
(g3
g4
(S'http://www.bbc.co.uk/food/recipes/peach_and_blueberry_06916'
p4385
S'None listed'
p4386
(lp4387
S'self-raising flour'
p4388
aS'unsalted butter'
p4389
aS'soft light brown sugar'
p4390
aS'ground cinnamon'
p4391
aS'demerara sugar'
p4392
aS'butter'
p4393
aS'plain flour'
p4394
aS'granulated sugar'
p4395
aS'light soft brown sugar'
p4396
aS'baking powder'
p4397
aS'salt'
p4398
aS'free-range eggs'
p4399
aS'whole milk'
p4400
aS'fresh blueberries'
p4401
aS'x tin peach slices in syrup'
p4402
aS'blueberries'
p4403
aS'x tin peach slices in syrup'
p4404
aS'caster sugar'
p4405
aS'plain flour'
p4406
aS'lemon juice'
p4407
atp4408
tp4409
Rp4410
sS'Venison casserole'
p4411
g2
(g3
g4
(S'http://www.bbc.co.uk/food/recipes/venisoncasserole_83746'
p4412
S'Elizabeth Guy'
p4413
(lp4414
S'olive oil'
p4415
aS'butter'
p4416
aS'onions'
p4417
aS'fresh garlic cloves'
p4418
aS'rashers smoked bacon'
p4419
aS'mushrooms'
p4420
aS'haunch or shoulder of venison'
p4421
aS'bottle red wine'
p4422
aS'water'
p4423
aS'beef stock cubes'
p4424
aS'redcurrant jelly'
p4425
aS'salt and freshly ground black pepper'
p4426
aS'cornflour'
p4427
aS'punnet redcurrants'
p4428
aS'sprigs rosemary or thyme'
p4429
aS'new potatoes'
p4430
aS'wilted spinach'
p4431
atp4432
tp4433
Rp4434
sS'Rhubarb and custard tart'
p4435
g2
(g3
g4
(S'http://www.bbc.co.uk/food/recipes/rhubarb_and_custard_tart_01442'
p4436
S'The Hairy Bikers'
p4437
(lp4438
S'plain flour'
p4439
aS'cold butter'
p4440
aS'medium free-range egg'
p4441
aS'medium free-range eggs'
p4442
aS'medium free-range egg yolks'
p4443
aS'caster sugar'
p4444
aS'whole milk'
p4445
aS'double cream'
p4446
aS'vanilla pod'
p4447
aS'caster sugar'
p4448
aS'rhubarb (preferably forced rhubarb)'
p4449
atp4450
tp4451
Rp4452
sS'Grilled lamb with feta and lemon'
p4453
g2
(g3
g4
(S'http://www.bbc.co.uk/food/recipes/grilledlambwithfetaa_92373'
p4454
S'Nigel Slater'
p4455
(lp4456
S'small fresh oregano sprigs'
p4457
aS'small fresh thyme sprigs'
p4458
aS'fruity olive oil'
p4459
aS'salt and freshly ground black pepper'
p4460
aS'block good-quality feta cheese'
p4461
aS'lemon, juice only'
p4462
aS'lamb cutlets'
p4463
atp4464
tp4465
Rp4466
sS'Rhubarb and blood orange crumble'
p4467
g2
(g3
g4
(S'http://www.bbc.co.uk/food/recipes/rhubarb_and_blood_orange_96294'
p4468
S'Simon Rimmer'
p4469
(lp4470
S'rhubarb'
p4471
aS'blood oranges'
p4472
aS'blood oranges'
p4473
aS'caster sugar'
p4474
aS'star anise'
p4475
aS'cinnamon stick'
p4476
aS'vanilla pod, split lengthways'
p4477
aS'unsalted butter'
p4478
aS'plain flour'
p4479
aS'demerara sugar'
p4480
aS'ground cinnamon'
p4481
aS'flaked almonds'
p4482
aS'clotted cream or custard'
p4483
atp4484
tp4485
Rp4486
sS'Slow-roasted shoulder of lamb, braised summer vegetables and roasting juices'
p4487
g2
(g3
g4
(S'http://www.bbc.co.uk/food/recipes/slow_roasted_shoulder_of_04540'
p4488
S'Raymond Blanc'
p4489
(lp4490
S'shoulder of new season lamb'
p4491
aS'sea salt'
p4492
aS'freshly ground black pepper'
p4493
aS'sprigs rosemary, leaves only'
p4494
aS'sage leaves'
p4495
aS'olive oil'
p4496
aS'rapeseed oil'
p4497
aS'lamb bones and trimmings'
p4498
aS'bulb garlic'
p4499
aS'Chardonnay wine'
p4500
aS'bay leaf'
p4501
aS'sprigs thyme'
p4502
aS'butter'
p4503
aS'olive oil'
p4504
aS'medium onions, root intact'
p4505
aS'carrots, washed'
p4506
aS'leaves Swiss chard'
p4507
aS'Little Gem lettuce, stalk intact'
p4508
aS'yellow beetroot'
p4509
aS'sea salt and freshly ground black pepper'
p4510
aS'sprigs flatleaf parsley, leaves only'
p4511
atp4512
tp4513
Rp4514
sS'Cobnut, wild mushroom and chestnut stir fry'
p4515
g2
(g3
g4
(S'http://www.bbc.co.uk/food/recipes/cobnutwildmushrooman_84174'
p4516
S'James Martin'
p4517
(lp4518
S'butter'
p4519
aS'onion'
p4520
aS'sprigs fresh thyme'
p4521
aS'mixed wild mushrooms'
p4522
aS'shelled fresh cobnuts'
p4523
aS'chestnuts, roasted'
p4524
aS'salt and freshly ground black pepper'
p4525
aS'roast chicken'
p4526
atp4527
tp4528
Rp4529
sS'Chocolate cookies with scarlet fruit'
p4530
g2
(g3
g4
(S'http://www.bbc.co.uk/food/recipes/chocolate_cookies_with_95245'
p4531
S'Nigel Slater'
p4532
(lp4533
S'dark chocolate at least cocoa solids'
p4534
aS'butter'
p4535
aS'light muscovado sugar'
p4536
aS'free-range eggs'
p4537
aS'vanilla extract'
p4538
aS'skinned hazelnuts'
p4539
aS'self-raising flour'
p4540
aS'of fresh cherries and raspberries'
p4541
atp4542
tp4543
Rp4544
sS'Wild garlic barley risotto with breast of guinea fowl, curly kale and beer-poached onions'
p4545
g2
(g3
g4
(S'http://www.bbc.co.uk/food/recipes/wild_garlic_barley_10985'
p4546
S'James Martin'
p4547
(lp4548
S'pints chicken stock'
p4549
aS'pearl barley'
p4550
aS'wild garlic'
p4551
aS'grated parmesan'
p4552
aS'lemon'
p4553
aS'salt'
p4554
aS'crowns of guinea fowl'
p4555
aS'unsalted butter'
p4556
aS'dark ale'
p4557
aS'small white onions'
p4558
aS'olive oil'
p4559
aS'butter'
p4560
aS'head kale'
p4561
aS'unsalted butter'
p4562
atp4563
tp4564
Rp4565
sS'Clams with beer, black beans and ginger'
p4566
g2
(g3
g4
(S'http://www.bbc.co.uk/food/recipes/clamswithbeerblackbe_91775'
p4567
S'Rick Stein'
p4568
(lp4569
S'carpetshell clams'
p4570
aS'fermented salted Chinese black beans'
p4571
aS'sugar'
p4572
aS'sesame oil'
p4573
aS'vegetable oil'
p4574
aS'garlic'
p4575
aS'fresh root ginger, peeled'
p4576
aS'red chilli, halved lengthways'
p4577
aS'lager-style beer'
p4578
aS'lime'
p4579
aS'spring onions'
p4580
aS'fresh coriander leaves'
p4581
atp4582
tp4583
Rp4584
sS'Cherry tomato and mozzarella salad'
p4585
g2
(g3
g4
(S'http://www.bbc.co.uk/food/recipes/cherry_tomato_and_74745'
p4586
S'Mary Berry'
p4587
(lp4588
S'small ripe tomatoes on the vine'
p4589
aS'mozzarella pearls'
p4590
aS'about basil leaves'
p4591
aS'olive oil'
p4592
aS'balsamic vinegar'
p4593
aS'salt and pepper'
p4594
atp4595
tp4596
Rp4597
sS'Cured mackerel and gooseberry salad'
p4598
g2
(g3
g4
(S'http://www.bbc.co.uk/food/recipes/cured_mackerel_and_45607'
p4599
S'Jason Atherton'
p4600
(lp4601
S'mackerel, filleted'
p4602
aS'cucumber'
p4603
aS'salt'
p4604
aS'sugar'
p4605
aS'free-range egg yolks'
p4606
aS'Dijon mustard'
p4607
aS'white wine vinegar'
p4608
aS'herb oil (this can be made by blending extra virgin olive oil with a few sprigs of fresh dill using a hand-held blender)'
p4609
aS'salt'
p4610
aS'celery stalks, trimmed'
p4611
aS'handfuls toasted walnuts'
p4612
aS'apples, peeled, core removed'
p4613
aS'fresh gooseberries'
p4614
aS'olive oil'
p4615
aS'baby onions'
p4616
aS'handfuls rocket leaves'
p4617
atp4618
tp4619
Rp4620
sS'Sole poached in cider sauce with parsley and bacon crumbs and cavolo nero'
p4621
g2
(g3
g4
(S'http://www.bbc.co.uk/food/recipes/sole_poached_in_cider_37454'
p4622
S'The Hairy Bikers'
p4623
(lp4624
S'rashers treacle-cured bacon'
p4625
aS'small parsley'
p4626
aS'stale breadcrumbs'
p4627
aS'cavolo nero'
p4628
aS'olive oil'
p4629
aS'knob of butter'
p4630
aS'garlic clove'
p4631
aS'about live mussels'
p4632
aS'about good quality dry cider'
p4633
aS'olive oil'
p4634
aS'banana shallot'
p4635
aS'fresh bay leaf'
p4636
aS'sprigs fresh thyme'
p4637
aS'fillets sole'
p4638
aS'about fish stock'
p4639
aS'about double cream'
p4640
aS'salt and freshly ground black pepper'
p4641
atp4642
tp4643
Rp4644
sS'Langoustine and samphire stir fry'
p4645
g2
(g3
g4
(S'http://www.bbc.co.uk/food/recipes/tigerprawnandsamphir_89272'
p4646
S'Ching-He Huang'
p4647
(lp4648
S'groundnut oil'
p4649
aS'garlic cloves'
p4650
aS'cooked langoustines (or other large prawns)'
p4651
aS'Shaoxing rice wine'
p4652
aS'fresh samphire, woody stems removed, or marsh samphire'
p4653
aS'baby leeks'
p4654
aS'spring onions'
p4655
aS'light soy sauce'
p4656
aS'sea salt'
p4657
atp4658
tp4659
Rp4660
sS'Roast pheasant and bread sauce'
p4661
g2
(g3
g4
(S'http://www.bbc.co.uk/food/recipes/roast_pheasant_and_bread_70943'
p4662
S'Raymond Blanc'
p4663
(lp4664
S'pheasants each), oven-ready'
p4665
aS'rapeseed oil (or other non-scented oil)'
p4666
aS'unsalted butter (optional)'
p4667
aS'sea salt and freshly ground black pepper'
p4668
aS'red wine'
p4669
aS'ruby port'
p4670
aS'crushed juniper berries'
p4671
aS'fresh thyme'
p4672
aS'unsalted butter'
p4673
aS'white onion'
p4674
aS'bay leaf'
p4675
aS'fresh thyme'
p4676
aS'cloves'
p4677
aS'pinches salt'
p4678
aS'small bacon lardons'
p4679
aS'full-fat milk'
p4680
aS'slice white bread'
p4681
atp4682
tp4683
Rp4684
sS'Victorian sugar plums'
p4685
g2
(g3
g4
(S'http://www.bbc.co.uk/food/recipes/victoriansugarplums_92623'
p4686
S'None listed'
p4687
(lp4688
S'sugar (approx'
p4689
aS'jar whole plums (preserved in syrup)'
p4690
atp4691
tp4692
Rp4693
sS'Pasta with courgette sauce and spinach balls'
p4694
g2
(g3
g4
(S'http://www.bbc.co.uk/food/recipes/pastawithcourgettesa_93036'
p4695
S'Antonio Carluccio'
p4696
(lp4697
S'spinach leaves, washed thoroughly'
p4698
aS'free-range eggs'
p4699
aS'freshly grated nutmeg'
p4700
aS'garlic clove'
p4701
aS'fresh white breadcrumbs'
p4702
aS'parmesan, or similar vegetarian hard cheese'
p4703
aS'salt and freshly ground black pepper'
p4704
aS'olive oil'
p4705
aS'olive oil'
p4706
aS'garlic cloves, peeled'
p4707
aS'chilli'
p4708
aS'courgettes, trimmed'
p4709
aS'parmesan, or similar vegetarian hard cheese'
p4710
aS'salt and freshly ground black pepper'
p4711
aS'rigatoni, cooked according to packet instructions'
p4712
atp4713
tp4714
Rp4715
sS'Strawberry and white chocolate cheesecake'
p4716
g2
(g3
g4
(S'http://www.bbc.co.uk/food/recipes/strawberry_and_white_07789'
p4717
S'James Martin'
p4718
(lp4719
S'white chocolate'
p4720
aS'strawberries, hulls removed'
p4721
aS'caster sugar'
p4722
aS'gelatine leaves'
p4723
aS'large ready-made sponge flan case'
p4724
aS'fruit liqueur'
p4725
aS'full-fat cream cheese'
p4726
aS'creme fraiche'
p4727
aS'double cream'
p4728
aS'vanilla pod, split in half lengthways'
p4729
atp4730
tp4731
Rp4732
sS'Mackerel fillet with dressed crab, pickled vegetables and herb oil'
p4733
g2
(g3
g4
(S'http://www.bbc.co.uk/food/recipes/mackerel_fillet_with_45038'
p4734
S'James Martin'
p4735
(lp4736
S'baby turnips, trimmed'
p4737
aS'radishes, preferably Breakfast radishes, trimmed'
p4738
aS'cucumber, peeled'
p4739
aS'white wine vinegar'
p4740
aS'sugar'
p4741
aS'salt'
p4742
aS'fresh parsley'
p4743
aS'fresh chives'
p4744
aS'fresh coriander'
p4745
aS'oil'
p4746
aS'free-range egg yolks'
p4747
aS'white wine vinegar'
p4748
aS'Dijon mustard'
p4749
aS'vegetable oil'
p4750
aS'white crab meat'
p4751
aS'mackerel fillets, skin on'
p4752
aS'chopped fresh wood sorrel'
p4753
aS'salt and freshly ground black pepper'
p4754
atp4755
tp4756
Rp4757
sS'Winter vegetable crepes with fondue sauce'
p4758
g2
(g3
g4
(S'http://www.bbc.co.uk/food/recipes/winter_vegetable_crpes_89686'
p4759
S'The Hairy Bikers'
p4760
(lp4761
S'olive oil'
p4762
aS'knob of butter'
p4763
aS'butternut squash, peeled, seeds removed'
p4764
aS'garlic clove'
p4765
aS'rainbow chard'
p4766
aS'cavolo nero, tough stalks removed'
p4767
aS'pine nuts'
p4768
aS'lemon'
p4769
aS'cayenne pepper'
p4770
aS'salt and freshly ground black pepper'
p4771
aS'plain flour'
p4772
aS'salt'
p4773
aS'large free-range eggs'
p4774
aS'milk'
p4775
aS'large knob of butter'
p4776
aS'pint milk'
p4777
aS'plain flour'
p4778
aS'butter'
p4779
aS'Gruyere'
p4780
aS'Emmental'
p4781
aS'freshly grated nutmeg'
p4782
aS'cayenne pepper'
p4783
atp4784
tp4785
Rp4786
sS'Parsnip and vanilla soup, saffron-poached quince, pan-fried scallops and tarragon crisps'
p4787
g2
(g3
g4
(S'http://www.bbc.co.uk/food/recipes/parsnip_and_vanilla_soup_24197'
p4788
S'Will Holland'
p4789
(lp4790
S'butter'
p4791
aS'onion'
p4792
aS'garlic large cloves)'
p4793
aS'parsnips (peeled weight)'
p4794
aS'vanilla pod'
p4795
aS'full-fat milk'
p4796
aS'chicken or vegetable stock'
p4797
aS'salt'
p4798
aS'lemon'
p4799
aS'cold water'
p4800
aS'quince'
p4801
aS'caster sugar'
p4802
aS'water'
p4803
aS'large saffron strands'
p4804
aS'hand-dived scallops, cleaned'
p4805
aS'salt'
p4806
aS'light olive oil'
p4807
aS'butter'
p4808
aS'lemon'
p4809
aS'groundnut oil'
p4810
aS'fresh tarragon'
p4811
aS'salt'
p4812
atp4813
tp4814
Rp4815
sS'Grilled mackerel with gooseberry sauce, new potatoes and salad leaves'
p4816
g2
(g3
g4
(S'http://www.bbc.co.uk/food/recipes/panfriedmackerelwith_84849'
p4817
S'James Martin'
p4818
(lp4819
S'butter'
p4820
aS'gooseberries'
p4821
aS'double cream'
p4822
aS'caster sugar'
p4823
aS'salt and freshly ground black pepper'
p4824
aS'mackerel, filleted, skin on'
p4825
aS'wholegrain mustard'
p4826
aS'olive oil'
p4827
aS'salt and freshly ground black pepper'
p4828
aS'new potatoes'
p4829
aS'extra virgin olive oil'
p4830
aS'salt and freshly ground black pepper'
p4831
aS'bag salad leaves'
p4832
aS'extra virgin olive oil'
p4833
aS'salt and freshly ground black pepper'
p4834
atp4835
tp4836
Rp4837
sS'Vegetable and herb soup'
p4838
g2
(g3
g4
(S'http://www.bbc.co.uk/food/recipes/vegetableandherbsoup_86605'
p4839
S'Michael Caines'
p4840
(lp4841
S'unsalted butter'
p4842
aS'shallots'
p4843
aS'leeks'
p4844
aS'celeriac'
p4845
aS'carrots'
p4846
aS'salt'
p4847
aS'white wine'
p4848
aS'water'
p4849
aS'chicken stock (vegetarians may substitute with vegetable stock)'
p4850
aS'courgette'
p4851
aS'French beans'
p4852
aS'fresh peas'
p4853
aS'Savoy cabbage'
p4854
aS'double cream'
p4855
aS'tomatoes, blanched, skins and seeds removed'
p4856
aS'fresh basil leaves'
p4857
aS'chopped fresh sorrel'
p4858
aS'chopped fresh chervil'
p4859
aS'chopped fresh chives'
p4860
aS'caster sugar'
p4861
atp4862
tp4863
Rp4864
sS'Slow roast leg of lamb with chardonnay, rosemary, sage and bay'
p4865
g2
(g3
g4
(S'http://www.bbc.co.uk/food/recipes/slow_roast_leg_of_lamb_85170'
p4866
S'Lorraine Pascale'
p4867
(lp4868
S'leg of lamb (the thick fillet end) with bone in (about'
p4869
aS'salt and pepper'
p4870
aS'red onions'
p4871
aS'garlic cloves'
p4872
aS'rosemary sprigs'
p4873
aS'sage leaves'
p4874
aS'bay leaves'
p4875
aS'white wine'
p4876
aS'couple squidges of honey'
p4877
aS'potatoes'
p4878
aS'olive oil'
p4879
aS'frozen peas'
p4880
atp4881
tp4882
Rp4883
sS'Marinated beetroot'
p4884
g2
(g3
g4
(S'http://www.bbc.co.uk/food/recipes/marinatedbeetroot_67843'
p4885
S'Gennaro Contaldo'
p4886
(lp4887
S'raw beetroot'
p4888
aS'white or red wine vinegar'
p4889
aS'pints water'
p4890
aS'of salt'
p4891
aS'garlic cloves'
p4892
aS'dried oregano'
p4893
aS'red chilli'
p4894
aS'olive oil'
p4895
atp4896
tp4897
Rp4898
sS'Bramley apple and blackberry souffle'
p4899
g2
(g3
g4
(S'http://www.bbc.co.uk/food/recipes/bramley_apple_and_81186'
p4900
S'Michel Roux Jr.'
p4901
(lp4902
S'frozen blackberries'
p4903
aS'caster sugar'
p4904
aS'Bramley apples, peeled'
p4905
aS'caster sugar'
p4906
aS'squeeze of lemon juice'
p4907
aS'ground cinnamon'
p4908
aS'nutmeg'
p4909
aS'softened butter'
p4910
aS'caster sugar'
p4911
aS'milk'
p4912
aS'vanilla pod'
p4913
aS'medium free-range eggs'
p4914
aS'plain flour'
p4915
aS'biscuits, such as gingernuts'
p4916
atp4917
tp4918
Rp4919
sS'Grilled mackerel with soy lime dressing'
p4920
g2
(g3
g4
(S'http://www.bbc.co.uk/food/recipes/filletofmackerelwith_93673'
p4921
S'Raymond Blanc'
p4922
(lp4923
S'cider vinegar'
p4924
aS'water'
p4925
aS'pieces coriander stalks'
p4926
aS'caster sugar'
p4927
aS'red onion'
p4928
aS'whole pink peppercorns'
p4929
aS'lemon slices'
p4930
aS'whole mackerel, filleted'
p4931
aS'oil'
p4932
aS'soy sauce'
p4933
aS'water'
p4934
aS'lime'
p4935
aS'fresh root ginger, peeled'
p4936
aS'dark muscovado sugar'
p4937
aS'fennel seeds, soaked in water for hours'
p4938
aS'fennel bulb, finely sliced on a mandoline, slices soaked in ice-cold water for minutes'
p4939
aS'olive oil'
p4940
aS'lime'
p4941
aS'rocket leaves'
p4942
aS'pinches sea salt'
p4943
aS'cayenne pepper'
p4944
atp4945
tp4946
Rp4947
sS'Potato salad'
p4948
g2
(g3
g4
(S'http://www.bbc.co.uk/food/recipes/potatosalad_67592'
p4949
S"Jo' Pratt"
p4950
(lp4951
S'walnut pieces (optional)'
p4952
aS'tarragon or cider vinegar'
p4953
aS'Dijon mustard'
p4954
aS'olive oil'
p4955
aS'walnut oil'
p4956
aS'honey'
p4957
aS'flaked sea salt and freshly ground black pepper'
p4958
aS'new potatoes, such as Jersey Royals or Charlotte'
p4959
aS'chopped fresh tarragon leaves'
p4960
aS'large shallot'
p4961
aS'chopped cornichons or gherkins (optional)'
p4962
atp4963
tp4964
Rp4965
sS'How to make marmalade'
p4966
g2
(g3
g4
(S'http://www.bbc.co.uk/food/recipes/how_to_make_marmalade_20072'
p4967
S'Thane Prince'
p4968
(lp4969
S'Seville oranges'
p4970
aS'granulated sugar'
p4971
atp4972
tp4973
Rp4974
sS'Pan-fried grey mullet with stir-fried mangetout and shiitake mushrooms with lemongrass sauce'
p4975
g2
(g3
g4
(S'http://www.bbc.co.uk/food/recipes/panfriedgreymulletwi_88172'
p4976
S'Michael Caines'
p4977
(lp4978
S'x grey mullet fillets'
p4979
aS'salt and freshly ground pepper'
p4980
aS'olive oil'
p4981
aS'lime'
p4982
aS'sesame oil'
p4983
aS'beansprouts'
p4984
aS'shiitake mushrooms'
p4985
aS'mangetout'
p4986
aS'toasted sesame seeds'
p4987
aS'unsalted butter'
p4988
aS'shallots'
p4989
aS'lemongrass'
p4990
aS'salt'
p4991
aS'button mushrooms'
p4992
aS'sprigs lemon thyme'
p4993
aS'fish stock'
p4994
aS'dry white wine'
p4995
aS'double cream'
p4996
aS'salt and freshly ground pepper'
p4997
atp4998
tp4999
Rp5000
sS'Parsley, tomato and bulgar wheat salad'
p5001
g2
(g3
g4
(S'http://www.bbc.co.uk/food/recipes/parsleytomatoandburg_73147'
p5002
S'Anissa Helou'
p5003
(lp5004
S'fine bulgar wheat'
p5005
aS'firm ripe tomatoes, diced into small cubes'
p5006
aS'spring onions'
p5007
aS'flatleaf parsley, (about on the stalk)'
p5008
aS'small mint, (about on the stalk), leaves only'
p5009
aS'ground cinnamon'
p5010
aS'ground allspice'
p5011
aS'finely ground black pepper'
p5012
aS'salt'
p5013
aS'lemon'
p5014
aS'extra virgin olive oil'
p5015
aS'Little Gem lettuces, washed and quartered (or fresh tender vine leaves or white cabbage leaves'
p5016
atp5017
tp5018
Rp5019
sS'How to dress a crab'
p5020
g2
(g3
g4
(S'http://www.bbc.co.uk/food/recipes/dressedcrab_90206'
p5021
S'Mitch Tonks'
p5022
(lp5023
S'large cooked crab'
p5024
aS'slices of brown bread'
p5025
aS'good-quality mayonnaise'
p5026
aS'lemon wedges'
p5027
aS'fresh parsley'
p5028
atp5029
tp5030
Rp5031
sS'Raspberry and marshmallow swiss roll'
p5032
g2
(g3
g4
(S'http://www.bbc.co.uk/food/recipes/raspberryandmarshmal_87490'
p5033
S'Simon Rimmer'
p5034
(lp5035
S'free-range eggs'
p5036
aS'golden caster sugar'
p5037
aS'self-raising flour'
p5038
aS'butter'
p5039
aS'raspberry jam'
p5040
aS'double cream'
p5041
aS'pink marshmallows'
p5042
aS'raspberries'
p5043
aS'icing sugar'
p5044
atp5045
tp5046
Rp5047
sS'Grilled mackerel fillets with yoghurt kadhi and curry leaf spinach poriyal'
p5048
g2
(g3
g4
(S'http://www.bbc.co.uk/food/recipes/grilledmackerelfille_89359'
p5049
S'Vivek Singh'
p5050
(lp5051
S'full fat plain yoghurt'
p5052
aS'chickpea flour (also called besan)'
p5053
aS'water'
p5054
aS'salt'
p5055
aS'ground turmeric'
p5056
aS'ghee'
p5057
aS'whole red chilli'
p5058
aS'cumin seeds'
p5059
aS'fresh curry leaves'
p5060
aS'cloves'
p5061
aS'fennel seeds'
p5062
aS'pepper'
p5063
aS'cinnamon stick'
p5064
aS'cumin seeds'
p5065
aS'red chilli powder'
p5066
aS'large mackerel fillets, bones picked out with tweezers'
p5067
aS'salt'
p5068
aS'lemon'
p5069
aS'vegetable oil'
p5070
aS'vegetable oil'
p5071
aS'mustard seeds'
p5072
aS'fresh curry leaves'
p5073
aS'onion'
p5074
aS'salt'
p5075
aS'fresh green chilli'
p5076
aS'spinach'
p5077
aS'fresh coconut'
p5078
atp5079
tp5080
Rp5081
sS'Vegetable shepherds pie'
p5082
g2
(g3
g4
(S'http://www.bbc.co.uk/food/recipes/vegetarian_shepherds_pie_73637'
p5083
S'Lorraine Pascale'
p5084
(lp5085
S'oil'
p5086
aS'leek, trimmed'
p5087
aS'carrots'
p5088
aS'chestnut mushrooms'
p5089
aS'large garlic clove'
p5090
aS'fresh sage leaves'
p5091
aS'sprigs fresh thyme, leaves only'
p5092
aS'x tin green or Puy lentils'
p5093
aS'x tin chopped tomatoes'
p5094
aS'vegetable stock'
p5095
aS'red wine'
p5096
aS'Worcestershire sauce'
p5097
aS'soy sauce'
p5098
aS'chilli flakes (optional)'
p5099
aS'caster sugar (optional)'
p5100
aS'salt and freshly ground black pepper'
p5101
aS'sweet potatoes (about in total)'
p5102
aS'floury potatoes (about in total)'
p5103
aS'small cauliflower, leaves and root removed'
p5104
aS'knob of unsalted butter'
p5105
aS'salt and freshly ground black pepper'
p5106
aS'finely grated parmesan (optional)'
p5107
atp5108
tp5109
Rp5110
sS'Grilled mackerel and mackerel tartare with shallot rings, croutons and coriander cress'
p5111
g2
(g3
g4
(S'http://www.bbc.co.uk/food/recipes/grilled_mackerel_and_54030'
p5112
S'James Martin'
p5113
(lp5114
S'mackerel fillets, skinned, pin-boned and finely diced'
p5115
aS'shallot'
p5116
aS'lemon'
p5117
aS'finely chopped fresh chives'
p5118
aS'baby capers, drained'
p5119
aS'creme fraiche'
p5120
aS'rice wine vinegar'
p5121
aS'caster sugar'
p5122
aS'banana shallots'
p5123
aS'finely chopped celery'
p5124
aS'radishes'
p5125
aS'salt'
p5126
aS'finely chopped celery leaves'
p5127
aS'olive oil'
p5128
aS'baguette'
p5129
aS'coriander cress'
p5130
atp5131
tp5132
Rp5133
sS'Bramley apple slice'
p5134
g2
(g3
g4
(S'http://www.bbc.co.uk/food/recipes/bramley_apple_slice_66887'
p5135
S'James Martin'
p5136
(lp5137
S'Bramley apples, peeled'
p5138
aS'caster sugar'
p5139
aS'butter'
p5140
aS'x ready-made all-butter puff pastry sheets (about x x'
p5141
aS'natural (uncoloured) marzipan'
p5142
aS'free-range egg yolks'
p5143
aS'demerara sugar'
p5144
aS'clotted cream'
p5145
aS'Bramley apples, peeled'
p5146
aS'caster sugar'
p5147
aS'butter'
p5148
aS'x ready-made all-butter puff pastry sheets (about x x'
p5149
aS'natural (uncoloured) marzipan'
p5150
aS'free-range egg yolks'
p5151
aS'demerara sugar'
p5152
aS'clotted cream'
p5153
atp5154
tp5155
Rp5156
sS'Pasta con sarde'
p5157
g2
(g3
g4
(S'http://www.bbc.co.uk/food/recipes/pastaconsarde_91609'
p5158
S'Arthur Potts Dawson'
p5159
(lp5160
S'extra virgin olive oil'
p5161
aS'large bulb fennel, trimmed, finely sliced'
p5162
aS'small onions'
p5163
aS'heaped fennel seeds'
p5164
aS'small fresh red chillies'
p5165
aS'sardines, scaled'
p5166
aS'raisins'
p5167
aS'pine nuts'
p5168
aS'white wine'
p5169
aS'water'
p5170
aS'salt and freshly ground black pepper'
p5171
aS'dried linguine'
p5172
aS'lemons'
p5173
atp5174
tp5175
Rp5176
sS'Minestrone with butternut squash noodles'
p5177
g2
(g3
g4
(S'http://www.bbc.co.uk/food/recipes/minestrone_with_35108'
p5178
S'Hemsley + Hemsley'
p5179
(lp5180
S'ghee'
p5181
aS'large onions'
p5182
aS'celery stick, trimmed'
p5183
aS'bay leaf'
p5184
aS'butternut squash, trimmed, peeled'
p5185
aS'garlic cloves'
p5186
aS'large carrot'
p5187
aS'dried oregano'
p5188
aS'dried basil'
p5189
aS'chilli flakes or chopped fresh chilli'
p5190
aS'pints vegetable stock'
p5191
aS'tin chopped tomatoes (or large fresh tomatoes'
p5192
aS'x tins cooked chickpeas, drained'
p5193
aS'cavolo nero, tough stalks removed'
p5194
aS'salt and freshly ground black pepper'
p5195
aS'large grated parmesan (or vegetarian alternative)'
p5196
aS'drizzle extra virgin olive oil'
p5197
atp5198
tp5199
Rp5200
sS'Damson cobbler'
p5201
g2
(g3
g4
(S'http://www.bbc.co.uk/food/recipes/damsoncobbler_70309'
p5202
S'Rick Stein'
p5203
(lp5204
S'damsons'
p5205
aS'caster sugar'
p5206
aS'self-raising flour'
p5207
aS'baking powder'
p5208
aS'chilled butter'
p5209
aS'caster sugar'
p5210
aS'a of salt'
p5211
aS'medium egg'
p5212
aS'buttermilk'
p5213
aS'flaked almonds'
p5214
atp5215
tp5216
Rp5217
sS'Summer pudding'
p5218
g2
(g3
g4
(S'http://www.bbc.co.uk/food/recipes/summerpudding_90295'
p5219
S'Sophie Grigson'
p5220
(lp5221
S'mixed summer fruit (such as raspberries, red, white and blackcurrants, tayberries, loganberries, blackberries'
p5222
aS'caster sugar'
p5223
aS'medium loaf good-quality white bread'
p5224
aS'cassis or blackcurrant cordial'
p5225
atp5226
tp5227
Rp5228
sS'Pomegranate crush'
p5229
g2
(g3
g4
(S'http://www.bbc.co.uk/food/recipes/_pomegranate_crush_52049'
p5230
S'Wayne Collins'
p5231
(lp5232
S'fresh pomegranate seeds'
p5233
aS'clementine juice'
p5234
aS'vanilla vodka'
p5235
aS'pomegranate juice'
p5236
aS'fresh mint'
p5237
atp5238
tp5239
Rp5240
sS'Steamed fillets of sea bass in green jackets with leek coulis with saffron and dill'
p5241
g2
(g3
g4
(S'http://www.bbc.co.uk/food/recipes/steamedfilletsofseab_91222'
p5242
S'Michel Roux'
p5243
(lp5244
S'x portions sea bass'
p5245
aS'salt and freshly ground black pepper'
p5246
aS'large dark green spinach or lettuce leaves, blanched for seconds in a pan of boiling water and refreshed in ice water'
p5247
aS'clarified butter'
p5248
aS'leeks, white part only'
p5249
aS'young leeks'
p5250
aS'butter'
p5251
aS'chicken stock or vegetable stock'
p5252
aS'small saffron strands'
p5253
aS'double cream'
p5254
aS'salt and freshly ground black pepper'
p5255
aS'chopped dill'
p5256
atp5257
tp5258
Rp5259
sS'Rump steak teriyaki with a salad of mooli, pea shoots and mustard'
p5260
g2
(g3
g4
(S'http://www.bbc.co.uk/food/recipes/rumpsteakteriyakiwit_89360'
p5261
S'Paul Rankin'
p5262
(lp5263
S'x aged rump steaks'
p5264
aS'salt and freshly ground black pepper'
p5265
aS'mirin (available in Asian supermarkets)'
p5266
aS'Japanese soy sauce (you can substitute normal soy sauce)'
p5267
aS'sake'
p5268
aS'vegetable oil'
p5269
aS'small red onion, finely sliced'
p5270
aS'mooli (you may substitute ordinary radish)'
p5271
aS'red radishes'
p5272
aS'pea shoots (or watercress)'
p5273
aS'fresh peas'
p5274
aS'English mustard'
p5275
aS'wholegrain mustard'
p5276
aS'sugar'
p5277
aS'wine vinegar'
p5278
aS'rapeseed oil'
p5279
aS'water'
p5280
atp5281
tp5282
Rp5283
sS'Chicken and asparagus quiche'
p5284
g2
(g3
g4
(S'http://www.bbc.co.uk/food/recipes/chicken_and_asparagus_27353'
p5285
S'James Martin'
p5286
(lp5287
S'butter'
p5288
aS'flour'
p5289
aS'ready-made shortcrust pastry'
p5290
aS'free-range eggs'
p5291
aS'double cream'
p5292
aS'asparagus'
p5293
aS'cooked leftover roast chicken'
p5294
aS'chopped fresh marjoram'
p5295
aS'vintage Comte cheese'
p5296
aS'bag green salad leaves'
p5297
aS'salt and freshly ground black pepper'
p5298
atp5299
tp5300
Rp5301
sS'Quince paste (membrillo)'
p5302
g2
(g3
g4
(S'http://www.bbc.co.uk/food/recipes/quincepastemembrillo_85978'
p5303
S'Alex Kingston'
p5304
(lp5305
S'quinces, washed, peeled, cored'
p5306
aS'vanilla pod'
p5307
aS'caster sugar'
p5308
atp5309
tp5310
Rp5311
sS'Pan-fried loin of venison with butternut squash, roasted salsify, venison jus with dark chocolate and Brussels sprout salad'
p5312
g2
(g3
g4
(S'http://www.bbc.co.uk/food/recipes/pan-fried_loin_of_55675'
p5313
S'Daniel Galmiche'
p5314
(lp5315
S'thin slices pancetta'
p5316
aS'x venison loin, fully trimmed'
p5317
aS'olive oil'
p5318
aS'thyme'
p5319
aS'garlic clove'
p5320
aS'olive oil'
p5321
aS'venison trimmings (from above)'
p5322
aS'onion'
p5323
aS'carrot, peeled cut in half lengthways'
p5324
aS'juniper berry'
p5325
aS'stick celery'
p5326
aS'thyme'
p5327
aS'red wine'
p5328
aS'pints chicken stock'
p5329
aS'per cent dark chocolate'
p5330
aS'salt and freshly ground black pepper'
p5331
aS'butternut squash'
p5332
aS'olive oil'
p5333
aS'thyme'
p5334
aS'garlic clove, skin on'
p5335
aS'shallots'
p5336
aS'salsify roots, washed'
p5337
aS'full fat milk'
p5338
aS'butter'
p5339
aS'flatleaf parsley'
p5340
aS'garlic clove'
p5341
aS'wild mushrooms'
p5342
aS'Brussels sprouts, base removed, outer leaves and very centre leaves discarded'
p5343
atp5344
tp5345
Rp5346
sS'Quick canape crostini'
p5347
g2
(g3
g4
(S'http://www.bbc.co.uk/food/recipes/quick_canap_crostini_90320'
p5348
S'Lorraine Pascale'
p5349
(lp5350
S'baguette'
p5351
aS'extra virgin olive oil'
p5352
aS'garlic clove'
p5353
aS'large ripe tomatoes'
p5354
aS'extra virgin olive oil'
p5355
aS'small basil and mint leaves'
p5356
aS'sugar (optional)'
p5357
aS'salt and freshly ground black pepper'
p5358
aS'canned cannellini beans'
p5359
aS'slices prosciutto'
p5360
aS'small of wild rocket'
p5361
aS'rindless soft goats cheese'
p5362
aS'fresh figs'
p5363
aS'small of mint leaves'
p5364
aS'balsamic vinegar'
p5365
aS'honey'
p5366
atp5367
tp5368
Rp5369
sS'Slow roast shoulder of pork with roasties and apple sauce with hispi cabbage'
p5370
g2
(g3
g4
(S'http://www.bbc.co.uk/food/recipes/slow_roast_shoulder_of_13963'
p5371
S'James Martin'
p5372
(lp5373
S'boned shoulder of pork'
p5374
aS'olive oil'
p5375
aS'sea salt'
p5376
aS'sprigs thyme'
p5377
aS'duck fat'
p5378
aS'King Edward potatoes'
p5379
aS'Bramley apples'
p5380
aS'butter'
p5381
aS'caster sugar'
p5382
aS'hispi cabbage'
p5383
aS'salt and freshly ground black pepper'
p5384
atp5385
tp5386
Rp5387
sS'Swiss roll with homemade raspberry jam'
p5388
g2
(g3
g4
(S'http://www.bbc.co.uk/food/recipes/swiss_roll_with_homemade_90772'
p5389
S'James Martin'
p5390
(lp5391
S'fresh raspberries'
p5392
aS'jam sugar'
p5393
aS'free-range eggs'
p5394
aS'caster sugar'
p5395
aS'vanilla pods, split'
p5396
aS'self-raising flour'
p5397
aS'double cream'
p5398
aS'fresh raspberries'
p5399
aS'tiny sprigs fresh mint or lemon verbena'
p5400
aS'chopped pistachios'
p5401
aS'fresh raspberries'
p5402
aS'jam sugar'
p5403
aS'free-range eggs'
p5404
aS'caster sugar'
p5405
aS'vanilla pods, split'
p5406
aS'self-raising flour'
p5407
aS'double cream'
p5408
aS'fresh raspberries'
p5409
aS'tiny sprigs fresh mint or lemon verbena'
p5410
aS'chopped pistachios'
p5411
atp5412
tp5413
Rp5414
sS'Cockle cream with bacon, tomatoes and potatoes'
p5415
g2
(g3
g4
(S'http://www.bbc.co.uk/food/recipes/cocklecreamwithbacon_11640'
p5416
S'Rick Stein'
p5417
(lp5418
S'pint cleaned cockles'
p5419
aS'water'
p5420
aS'butter'
p5421
aS'lean bacon'
p5422
aS'leek'
p5423
aS'stick celery'
p5424
aS'plum tomatoes'
p5425
aS'potatoes (about'
p5426
aS'small lemon'
p5427
aS'eggs'
p5428
aS'fresh parsley'
p5429
aS'salt and freshly ground black pepper'
p5430
atp5431
tp5432
Rp5433
sS'Mulled wine'
p5434
g2
(g3
g4
(S'http://www.bbc.co.uk/food/recipes/mulled_wine_46955'
p5435
S'Mary Berry'
p5436
(lp5437
S'large orange'
p5438
aS'lemons'
p5439
aS'cloves'
p5440
aS'satsumas or clementines'
p5441
aS'x bottles red wine'
p5442
aS'cinnamon sticks'
p5443
aS'caster sugar (optional)'
p5444
aS'brandy'
p5445
atp5446
tp5447
Rp5448
sS'Stargazey pie'
p5449
g2
(g3
g4
(S'http://www.bbc.co.uk/food/recipes/stargazeypie_93663'
p5450
S'Tristan Welch'
p5451
(lp5452
S'white chicken stock'
p5453
aS'creme fraiche'
p5454
aS'English mustard'
p5455
aS'salt'
p5456
aS'mustard powder'
p5457
aS'squeeze lemon juice'
p5458
aS'piece streaky bacon'
p5459
aS'baby onions'
p5460
aS'all-butter puff pastry'
p5461
aS'free-range egg yolk'
p5462
aS'Cornish sardines, filleted'
p5463
aS'rapeseed oil'
p5464
aS'butter'
p5465
aS'white wine vinegar'
p5466
aS"quails' eggs"
p5467
atp5468
tp5469
Rp5470
sS'Stuffed marrow'
p5471
g2
(g3
g4
(S'http://www.bbc.co.uk/food/recipes/stuffed_marrow_43279'
p5472
S'Avis Davies'
p5473
(lp5474
S'medium marrow'
p5475
aS'garlic cloves'
p5476
aS'chopped fresh thyme'
p5477
aS'olive oil'
p5478
aS'large onions'
p5479
aS'beef mince'
p5480
aS'tomato puree'
p5481
aS'sun-dried tomato paste (or tbsp chopped sundried tomatoes)'
p5482
aS'fresh tomatoes (or x can chopped tomatoes)'
p5483
aS'finely chopped fresh parsley'
p5484
aS'free-range eggs'
p5485
aS'parmesan, grated'
p5486
aS'pecorino'
p5487
aS'salt and freshly ground black pepper'
p5488
atp5489
tp5490
Rp5491
sS'Kale and quinoa saute with orange tahini dressing'
p5492
g2
(g3
g4
(S'http://www.bbc.co.uk/food/recipes/kale_and_quinoa_saut_64469'
p5493
S'Hemsley + Hemsley'
p5494
(lp5495
S'quinoa'
p5496
aS'extra virgin olive oil'
p5497
aS'coconut oil'
p5498
aS'kale, tough stalks discarded, leaves shredded'
p5499
aS'fat garlic clove'
p5500
aS'large chopped fresh coriander or flatleaf parsley'
p5501
aS'unwaxed orange, zest only'
p5502
aS'sea salt'
p5503
aS'tahini'
p5504
aS'extra virgin olive oil'
p5505
aS'garlic clove'
p5506
aS'warm (boiled) water'
p5507
aS'orange juice'
p5508
aS'salt and freshly ground black pepper'
p5509
atp5510
tp5511
Rp5512
sS'Venison, chicken liver and Armagnac terrine'
p5513
g2
(g3
g4
(S'http://www.bbc.co.uk/food/recipes/venison_chicken_liver_34637'
p5514
S'James Martin'
p5515
(lp5516
S'venison fillet'
p5517
aS'chicken livers'
p5518
aS'rapeseed oil'
p5519
aS'unsalted butter'
p5520
aS'Armagnac'
p5521
aS'dry cured smoked streaky bacon'
p5522
aS'skinless boneless chicken breasts'
p5523
aS'double cream'
p5524
aS'toasted chopped hazelnuts'
p5525
aS'dried cranberries'
p5526
aS'chopped tarragon leaves'
p5527
aS'sea salt and freshly ground black pepper'
p5528
atp5529
tp5530
Rp5531
sS'Goats cheese and white peach salad with truffled mascarpone cream'
p5532
g2
(g3
g4
(S'http://www.bbc.co.uk/food/recipes/goats_cheese_and_white_91501'
p5533
S'Ed Baines'
p5534
(lp5535
S'cobnuts'
p5536
aS'breadcrumbs'
p5537
aS'x Crottin de Chavignol goats cheese'
p5538
aS'white peaches, halved'
p5539
aS'honey'
p5540
aS'few shavings fresh black truffle'
p5541
aS'mascarpone'
p5542
aS'frisee (curly endive)'
p5543
aS'red chard'
p5544
aS'alfalfa sprouts'
p5545
atp5546
tp5547
Rp5548
sS'Grilled lamb chops, wild garlic pesto and Jersey Royals'
p5549
g2
(g3
g4
(S'http://www.bbc.co.uk/food/recipes/grilled_lamb_chops_wild_41287'
p5550
S'Tom Kerridge'
p5551
(lp5552
S'wild garlic leaves'
p5553
aS'garlic clove'
p5554
aS'pine nuts'
p5555
aS'olive oil'
p5556
aS'lemon'
p5557
aS'parmesan cheese'
p5558
aS'salt and pepper'
p5559
aS'lamb cutlets'
p5560
aS'olive oil'
p5561
aS'pre-cooked Jersey Royals'
p5562
aS'wild garlic leaves'
p5563
atp5564
tp5565
Rp5566
sS'Oysters Kilpatrick and Rockefeller'
p5567
g2
(g3
g4
(S'http://www.bbc.co.uk/food/recipes/oysters_kilpatrick_and_96431'
p5568
S'None listed'
p5569
(lp5570
S'fresh oysters, shucked'
p5571
aS'shallot'
p5572
aS'pastis (aniseed liqueur)'
p5573
aS'double cream'
p5574
aS'large spinach'
p5575
aS'nutmeg, freshly grated'
p5576
aS'chopped parsley'
p5577
aS'free-range egg yolk'
p5578
aS'brioche crumbs'
p5579
aS'rashers streaky bacon, rind removed'
p5580
aS'Tabasco'
p5581
aS'Worcestershire sauce'
p5582
aS'butter'
p5583
atp5584
tp5585
Rp5586
sS'Spring minestrone soup with pesto'
p5587
g2
(g3
g4
(S'http://www.bbc.co.uk/food/recipes/springminestronesoup_74617'
p5588
S'Mary Berry'
p5589
(lp5590
S'olive oil'
p5591
aS'butter'
p5592
aS'large onions'
p5593
aS'leek'
p5594
aS'potatoes'
p5595
aS'sticks celery'
p5596
aS'savoy cabbage'
p5597
aS'pints beef or vegetable stock'
p5598
aS'can Italian chopped tomatoes'
p5599
aS'salt and freshly ground black pepper'
p5600
aS'green basil pesto'
p5601
atp5602
tp5603
Rp5604
sS'Little Bramley apple pies'
p5605
g2
(g3
g4
(S'http://www.bbc.co.uk/food/recipes/little_bramley_apple_47170'
p5606
S'Lorraine Pascale'
p5607
(lp5608
S'Bramley apples, peeled'
p5609
aS'soft light brown sugar'
p5610
aS'ground cinnamon'
p5611
aS'ground ginger'
p5612
aS'lemon'
p5613
aS'knob of butter'
p5614
aS'plain flour'
p5615
aS'puff pastry'
p5616
aS'medium free-range egg'
p5617
aS'icing sugar'
p5618
aS'softly whipped cream'
p5619
atp5620
tp5621
Rp5622
sS'Corn on the cob with burnt-onion ketchup'
p5623
g2
(g3
g4
(S'http://www.bbc.co.uk/food/recipes/corn_on_the_cob_with_88227'
p5624
S'Tom Kerridge'
p5625
(lp5626
S'vegetable oil'
p5627
aS'onions'
p5628
aS'bay leaves'
p5629
aS'white wine vinegar'
p5630
aS'Worcestershire sauce'
p5631
aS'garlic cloves'
p5632
aS'dark muscovado sugar'
p5633
aS'chopped salted anchovies'
p5634
aS'butter'
p5635
aS'smoked paprika'
p5636
aS'dried sage'
p5637
aS'dried chilli flakes'
p5638
aS'cracked black peppercorns'
p5639
aS'table salt'
p5640
aS'garlic powder'
p5641
aS'sweetcorn'
p5642
atp5643
tp5644
Rp5645
sS'Wheat tart (Pastiera di grano)'
p5646
g2
(g3
g4
(S'http://www.bbc.co.uk/food/recipes/wheattartpastieradig_91172'
p5647
S'Antonio Carluccio'
p5648
(lp5649
S'whole wheat, soaked for hours in several changes of water (or alternatively use canned cooked wheat, also called pastiera di grano'
p5650
aS'pint milk (if you are soaking the whole wheat)'
p5651
aS'lemon'
p5652
aS'ground cinnamon'
p5653
aS'vanilla sugar (make your own by adding a vanilla pod to a pot of sugar'
p5654
aS'orange'
p5655
aS'ricotta cheese'
p5656
aS'large free-range eggs'
p5657
aS'orange flower water (available from large supermarkets and specialist Middle Eastern delicatessens)'
p5658
aS'candied peel'
p5659
aS'caster sugar'
p5660
aS'butter'
p5661
aS'icing sugar'
p5662
aS'caster sugar'
p5663
aS'butter or lard'
p5664
aS'large free-range egg yolks'
p5665
aS'plain flour'
p5666
atp5667
tp5668
Rp5669
sS'Venison with blueberries'
p5670
g2
(g3
g4
(S'http://www.bbc.co.uk/food/recipes/venisonwithblueberri_86030'
p5671
S'Brenda Blethyn'
p5672
(lp5673
S'blueberries'
p5674
aS'white wine or sherry'
p5675
aS'sugar'
p5676
aS'balsamic vinegar'
p5677
aS'orange juice'
p5678
aS'salt and freshly ground black pepper'
p5679
aS'butter'
p5680
aS'knob butter'
p5681
aS'olive oil'
p5682
aS'venison steaks'
p5683
atp5684
tp5685
Rp5686
sS'Apple noodle tart with toasted almonds and ginger creme fraiche'
p5687
g2
(g3
g4
(S'http://www.bbc.co.uk/food/recipes/apple_noodle_tart_with_75363'
p5688
S'Hemsley + Hemsley'
p5689
(lp5690
S'ground almonds'
p5691
aS'salt'
p5692
aS'bicarbonate of soda'
p5693
aS'maple syrup'
p5694
aS'butter'
p5695
aS'free-range egg'
p5696
aS'eating apples'
p5697
aS'vanilla extract'
p5698
aS'raisins'
p5699
aS'ground cinnamon'
p5700
aS'maple syrup'
p5701
aS'cold butter'
p5702
aS'almond flakes'
p5703
aS'full-fat creme fraiche'
p5704
aS'piece fresh root ginger'
p5705
atp5706
tp5707
Rp5708
sS'Venison tartare with celeriac remoulade, chestnuts and juniper toast'
p5709
g2
(g3
g4
(S'http://www.bbc.co.uk/food/recipes/venison_tartare_with_19212'
p5710
S'Adam Byatt'
p5711
(lp5712
S'sourdough bread'
p5713
aS'drizzle olive oil'
p5714
aS'dried juniper berries'
p5715
aS'garlic clove'
p5716
aS'white wine vinegar'
p5717
aS'drops Tabasco'
p5718
aS'Dijon mustard'
p5719
aS'tomato ketchup'
p5720
aS'silver anchovy fillets (boquerones)'
p5721
aS'dried juniper berry'
p5722
aS'small celeriac'
p5723
aS'salt'
p5724
aS'creme fraiche'
p5725
aS'wholegrain mustard'
p5726
aS'venison loin, fat trimmed'
p5727
aS'large shallot'
p5728
aS'fresh flatleaf parsley'
p5729
aS'cornichons, drained'
p5730
aS'salt and freshly ground black pepper'
p5731
aS'quail egg yolks (reserve half of each shell to serve)'
p5732
aS'large fresh chestnuts, cooked'
p5733
atp5734
tp5735
Rp5736
sS'Jerusalem artichoke broth'
p5737
g2
(g3
g4
(S'http://www.bbc.co.uk/food/recipes/jerusalemartichokebr_85618'
p5738
S'Sophie Grigson'
p5739
(lp5740
S'large onion'
p5741
aS'Jerusalem artichokes, peeled'
p5742
aS'extra virgin olive oil'
p5743
aS'sprigs fresh thyme'
p5744
aS'bay leaf'
p5745
aS'pints hot chicken or vegetable stock'
p5746
aS'white wine vinegar'
p5747
aS'salt and freshly ground black pepper'
p5748
aS'roughly chopped parsley'
p5749
aS'thick slices baguette (optional)'
p5750
aS'single Gloucester, mature cheddar or gruyere cheese'
p5751
atp5752
tp5753
Rp5754
sS'Grey mullet with yoghurt potatoes'
p5755
g2
(g3
g4
(S'http://www.bbc.co.uk/food/recipes/greymulletwithyoghur_86927'
p5756
S'Simon Rimmer'
p5757
(lp5758
S'cumin seeds'
p5759
aS'natural yoghurt'
p5760
aS'water'
p5761
aS'ground turmeric'
p5762
aS'chilli powder'
p5763
aS'ground coriander'
p5764
aS'ground cumin'
p5765
aS'salt'
p5766
aS'dark brown sugar'
p5767
aS'green chillies'
p5768
aS'potatoes, par-boiled for four minutes, cooled, peeled'
p5769
aS'x grey mullet fillets'
p5770
aS'salt and freshly ground black pepper'
p5771
aS'vegetable oil'
p5772
aS'butter'
p5773
aS'fresh coriander leaves'
p5774
aS'lime wedges'
p5775
atp5776
tp5777
Rp5778
sS'Port-preserved cherries with cinnamon and orange'
p5779
g2
(g3
g4
(S'http://www.bbc.co.uk/food/recipes/port-preserved_cherries_53464'
p5780
S'Lorraine Pascale'
p5781
(lp5782
S'soft light brown sugar'
p5783
aS'port'
p5784
aS'cinnamon'
p5785
aS'orange'
p5786
aS'cherries'
p5787
atp5788
tp5789
Rp5790
sS'Rack of lamb with mushroom ravioli, cep puree and wild mushroom sauce'
p5791
g2
(g3
g4
(S'http://www.bbc.co.uk/food/recipes/rackoflambwithmushro_93222'
p5792
S'James Martin'
p5793
(lp5794
S'pasta flour'
p5795
aS'free-range eggs'
p5796
aS'butter'
p5797
aS'onion, peeled'
p5798
aS'fresh thyme sprigs'
p5799
aS'field mushrooms'
p5800
aS'salt and freshly ground black pepper'
p5801
aS'olive oil'
p5802
aS'butter'
p5803
aS'onion, peeled'
p5804
aS'garlic clove, peeled'
p5805
aS'dried ceps, soaked in hot water until softened'
p5806
aS'Salt and freshly ground black pepper'
p5807
aS'butter'
p5808
aS'fresh mixed wild mushrooms, cleaned'
p5809
aS'red wine'
p5810
aS'reduced beef stock'
p5811
aS'salt and freshly ground black pepper'
p5812
aS'x lamb racks, French trimmed'
p5813
aS'salt and freshly ground black pepper'
p5814
aS'butter'
p5815
aS'olive oil'
p5816
aS'sweet potato, peeled'
p5817
aS'fresh thyme'
p5818
atp5819
tp5820
Rp5821
sS'White chocolate and ginger cheesecake'
p5822
g2
(g3
g4
(S'http://www.bbc.co.uk/food/recipes/marys_white_chocolate_55940'
p5823
S'Mary Berry'
p5824
(lp5825
S'butter'
p5826
aS'plain chocolate'
p5827
aS'digestive biscuits'
p5828
aS'white chocolate buttons'
p5829
aS'full-fat cream cheese'
p5830
aS'soured cream'
p5831
aS'free-range eggs'
p5832
aS'vanilla extract'
p5833
aS'pieces stem ginger (from a jar)'
p5834
aS'plain chocolate'
p5835
aS'few drops red food colouring'
p5836
aS'marzipan'
p5837
aS'icing sugar'
p5838
aS'double cream'
p5839
atp5840
tp5841
Rp5842
sS'Confit duck with parsnip puree'
p5843
g2
(g3
g4
(S'http://www.bbc.co.uk/food/recipes/confit_duck_with_parsnip_41711'
p5844
S'John Torode'
p5845
(lp5846
S'cumin seeds'
p5847
aS'coriander seeds'
p5848
aS'juniper berries'
p5849
aS'clove garlic'
p5850
aS'sea salt flakes'
p5851
aS'duck legs'
p5852
aS'small fresh thyme'
p5853
aS'fresh rosemary'
p5854
aS'whole head garlic'
p5855
aS'I pints duck or goose fat'
p5856
aS'fresh bay leaves'
p5857
aS'whole black peppercorns'
p5858
aS'large parsnip, peeled'
p5859
aS'floury potato, peeled'
p5860
aS'apple, peeled, core removed'
p5861
aS'salt and white pepper'
p5862
aS'olive oil'
p5863
aS'milk'
p5864
aS'cobnuts, roasted'
p5865
atp5866
tp5867
Rp5868
sS'Wild garlic, roasted sweetbread and morel risotto'
p5869
g2
(g3
g4
(S'http://www.bbc.co.uk/food/recipes/wild_garlic_roasted_66193'
p5870
S'Jason Atherton'
p5871
(lp5872
S'knob of butter'
p5873
aS'shallots'
p5874
aS'carnaroli risotto rice'
p5875
aS'pints hot vegetable stock'
p5876
aS'finely chopped thyme'
p5877
aS'mascarpone'
p5878
aS'grated parmesan'
p5879
aS'cold butter'
p5880
aS'cabernet sauvignon vinegar'
p5881
aS'olive oil'
p5882
aS'button mushrooms'
p5883
aS'dried ceps (porcini mushrooms)'
p5884
aS'mushroom bouillon'
p5885
aS'pints veal stock'
p5886
aS'pints white chicken stock'
p5887
aS'morel mushrooms'
p5888
aS'minced shallot'
p5889
aS'white wine'
p5890
aS'chicken stock'
p5891
aS'wild garlic'
p5892
aS'parmesan shavings'
p5893
aS'wild rocket'
p5894
aS'calves or sheeps sweetbreads'
p5895
aS'salt and pepper'
p5896
aS'olive oil'
p5897
aS'knob of butter'
p5898
atp5899
tp5900
Rp5901
sS'Blackberry meringue parfait'
p5902
g2
(g3
g4
(S'http://www.bbc.co.uk/food/recipes/blackberrymeringuepa_93398'
p5903
S'James Martin'
p5904
(lp5905
S'free-range egg whites'
p5906
aS'caster sugar'
p5907
aS'cornflour'
p5908
aS'white wine vinegar'
p5909
aS'blackberries'
p5910
aS'ready-made vanilla custard'
p5911
aS'lemon'
p5912
aS'double cream'
p5913
aS'free-range egg whites'
p5914
aS'caster sugar'
p5915
aS'caster sugar'
p5916
aS'cold water'
p5917
aS'free-range egg whites'
p5918
aS'lemon juice'
p5919
aS'butter'
p5920
aS'blackberries'
p5921
aS'blackberry liqueur'
p5922
atp5923
tp5924
Rp5925
sS'Horseradish mash'
p5926
g2
(g3
g4
(S'http://www.bbc.co.uk/food/recipes/horseradishmash_13800'
p5927
S'Hugh Fearnley-Whittingstall'
p5928
(lp5929
S'potatoes'
p5930
aS'salt'
p5931
aS'butter'
p5932
aS'milk'
p5933
aS'freshly grated horseradish root'
p5934
atp5935
tp5936
Rp5937
sS'Boiled lemon and artichoke salad'
p5938
g2
(g3
g4
(S'http://www.bbc.co.uk/food/recipes/boiledlemonandartich_84656'
p5939
S'Rose Gray and Ruth Rogers'
p5940
(lp5941
S'thick-skinned lemons'
p5942
aS'sea salt'
p5943
aS'globe artichokes'
p5944
aS'blanched almonds'
p5945
aS'finely chopped fresh thyme'
p5946
aS'honey'
p5947
aS'lemon'
p5948
aS'extra virgin olive oil'
p5949
atp5950
tp5951
Rp5952
sS'Grilled fruit with mascarpone'
p5953
g2
(g3
g4
(S'http://www.bbc.co.uk/food/recipes/grilledfruitwithmasc_72274'
p5954
S'Antony Worrall Thompson'
p5955
(lp5956
S'ripe plums'
p5957
aS'packet meringues'
p5958
aS'tub mascarpone cheese'
p5959
aS'caster sugar'
p5960
atp5961
tp5962
Rp5963
sS"Bulgur wheat salad with beetroot, honey and goats' cheese"
p5964
g2
(g3
g4
(S'http://www.bbc.co.uk/food/recipes/bulgur_wheat_salad_with_65322'
p5965
S'Justine Pattison'
p5966
(lp5967
S'large parsnip'
p5968
aS'carrots'
p5969
aS'olive oil'
p5970
aS'bulgur wheat'
p5971
aS'clear honey'
p5972
aS'dried chilli flakes'
p5973
aS'lemon'
p5974
aS'chopped fresh flatleaf parsley'
p5975
aS'vacuum-packed cooked beetroot, drained'
p5976
aS"soft goats' cheese"
p5977
aS'salt and freshly ground black pepper'
p5978
aS'warm flatbreads'
p5979
atp5980
tp5981
Rp5982
sS'Hazelnut butter grilled scallops with salad'
p5983
g2
(g3
g4
(S'http://www.bbc.co.uk/food/recipes/hazelnutbuttergrille_89237'
p5984
S'James Martin'
p5985
(lp5986
S'olive oil'
p5987
aS'shallot, peeled'
p5988
aS'butter'
p5989
aS'lemon'
p5990
aS'finely chopped fresh chervil'
p5991
aS'finely chopped fresh chives'
p5992
aS'hazelnuts'
p5993
aS'salt and freshly ground black pepper'
p5994
aS'scallops'
p5995
aS'wholegrain mustard'
p5996
aS'good quality white wine vinegar'
p5997
aS'good quality rapeseed oil'
p5998
aS'Little Gem lettuce'
p5999
aS'punnet pea shoots'
p6000
atp6001
tp6002
Rp6003
sS'Raspberry marshmallows'
p6004
g2
(g3
g4
(S'http://www.bbc.co.uk/food/recipes/raspberrymarshmallow_86118'
p6005
S'James Martin'
p6006
(lp6007
S'granulated sugar'
p6008
aS'liquid glucose (available from some chemists and specialist cook shops)'
p6009
aS'water'
p6010
aS'large free-range egg whites'
p6011
aS'sheets gelatine (about'
p6012
aS'vanilla extract'
p6013
aS'icing sugar'
p6014
aS'cornflour'
p6015
aS'fresh raspberries'
p6016
aS'white chocolate, melted'
p6017
atp6018
tp6019
Rp6020
sS'Mexican sweetcorn pancakes, poached eggs and salsa'
p6021
g2
(g3
g4
(S'http://www.bbc.co.uk/food/recipes/mexicansweetcornpanc_89498'
p6022
S'James Tanner'
p6023
(lp6024
S'plain flour'
p6025
aS'baking powder'
p6026
aS'free-range egg'
p6027
aS'whole milk'
p6028
aS'salt and freshly ground black pepper'
p6029
aS'corn on the cob'
p6030
aS'vegetable oil'
p6031
aS'tomatoes, skin and seeds removed'
p6032
aS'coriander sprigs, leaves only'
p6033
aS'green chilli'
p6034
aS'sugar'
p6035
aS'small red onion'
p6036
aS'lime'
p6037
aS'sea salt'
p6038
aS'freshly ground black pepper'
p6039
aS'white wine vinegar'
p6040
aS'free-range eggs'
p6041
atp6042
tp6043
Rp6044
sS'Rhubarb vodka'
p6045
g2
(g3
g4
(S'http://www.bbc.co.uk/food/recipes/rhubarbvodka_65975'
p6046
S'None listed'
p6047
(lp6048
S'pints vodka'
p6049
aS'rhubarb sticks'
p6050
aS'lemon'
p6051
aS'cloves'
p6052
aS'cinnamon stick'
p6053
aS'sugar'
p6054
atp6055
tp6056
Rp6057
sS'Braised beef short ribs with salsify and bashed neeps'
p6058
g2
(g3
g4
(S'http://www.bbc.co.uk/food/recipes/braisedbeefshortribs_85339'
p6059
S'Mark Hix'
p6060
(lp6061
S'beef short ribs'
p6062
aS'salt and freshly ground black pepper'
p6063
aS'flour'
p6064
aS'onions, peeled'
p6065
aS'celery sticks'
p6066
aS'carrot, peeled'
p6067
aS'tomato puree'
p6068
aS'Innis and Gunn beer'
p6069
aS'pints beef stock'
p6070
aS'bay leaf'
p6071
aS'few sprigs fresh thyme'
p6072
aS'garlic cloves, peeled'
p6073
aS'black peppercorns'
p6074
aS'salsify sticks, peeled'
p6075
aS'salt and freshly ground black pepper'
p6076
aS'butter'
p6077
aS'chopped fresh parsley'
p6078
aS'turnips or swede, peeled'
p6079
aS'butter'
p6080
aS'salt and freshly ground black pepper'
p6081
atp6082
tp6083
Rp6084
sS'Medium-cut Seville orange marmalade'
p6085
g2
(g3
g4
(S'http://www.bbc.co.uk/food/recipes/medium-cut_seville_70291'
p6086
S'Dan Lepard'
p6087
(lp6088
S'Seville oranges'
p6089
aS'lemon juice'
p6090
aS'white sugar: regular'
p6091
aS'soft dark brown sugar'
p6092
atp6093
tp6094
Rp6095
sS'Sweetcorn relish'
p6096
g2
(g3
g4
(S'http://www.bbc.co.uk/food/recipes/sweetcorn_relish_14809'
p6097
S'Alex Lomax and Ed Bond'
p6098
(lp6099
S'oil'
p6100
aS'onion'
p6101
aS'garlic clove'
p6102
aS'grated ginger'
p6103
aS'chillies'
p6104
aS'red pepper'
p6105
aS'green pepper'
p6106
aS'cobs of sweetcorns'
p6107
aS'large tomato, seeds removed'
p6108
aS'dark brown sugar'
p6109
aS'cider vinegar'
p6110
aS'salt'
p6111
aS'pepper'
p6112
aS'chopped coriander'
p6113
atp6114
tp6115
Rp6116
sS'Raymond Blancs light shellfish chowder'
p6117
g2
(g3
g4
(S'http://www.bbc.co.uk/food/recipes/raymond_blancs_light_58868'
p6118
S'Raymond Blanc'
p6119
(lp6120
S'dry white wine'
p6121
aS'clams'
p6122
aS'mussels'
p6123
aS'unsalted butter'
p6124
aS'onion'
p6125
aS'garlic clove'
p6126
aS'bay leaf'
p6127
aS'whipping cream or double cream'
p6128
aS'wakame (edible seaweed, available from specialist Japanese stores and some larger supermarkets)'
p6129
aS'finely grated root ginger'
p6130
aS'finely grated nutmeg'
p6131
aS'lemon juice'
p6132
aS'salt and freshly ground black pepper'
p6133
aS'chopped fresh parsley leaves'
p6134
aS'baguette'
p6135
atp6136
tp6137
Rp6138
sS'Lamb, beetroot and bulgur wheat patties'
p6139
g2
(g3
g4
(S'http://www.bbc.co.uk/food/recipes/lamb_beetroot_and_bulgur_03270'
p6140
S'Nigel Slater'
p6141
(lp6142
S'fine or medium cracked wheat'
p6143
aS'raw beetroot'
p6144
aS'a small to medium onion'
p6145
aS'minced lamb'
p6146
aS'large garlic cloves, or even'
p6147
aS'heaped chopped dill'
p6148
aS'a small parsley'
p6149
aS'salt and black pepper'
p6150
aS'a little groundnut oil'
p6151
aS'about a third of a medium cucumber'
p6152
aS'salt and black pepper'
p6153
aS'the leaves from or mint sprigs'
p6154
aS'plain yoghurt'
p6155
atp6156
tp6157
Rp6158
sS'Jacobite blazer'
p6159
g2
(g3
g4
(S'http://www.bbc.co.uk/food/recipes/jacobite_blazer_42916'
p6160
S'Wayne Collins'
p6161
(lp6162
S'whisky'
p6163
aS'orange liqueur'
p6164
aS'honey syrup'
p6165
aS'dashes whisky bitters'
p6166
aS'fresh blackberries'
p6167
aS'fresh raspberries'
p6168
aS'strip orange zest'
p6169
atp6170
tp6171
Rp6172
sS"Mary Berry's sage and onion stuffing balls"
p6173
g2
(g3
g4
(S'http://www.bbc.co.uk/food/recipes/sage_and_onion_stuffing_09013'
p6174
S'Mary Berry'
p6175
(lp6176
S'butter'
p6177
aS'large onion'
p6178
aS'pork sausage meat'
p6179
aS'fresh white breadcrumbs'
p6180
aS'large lemon'
p6181
aS'chopped fresh parsley'
p6182
aS'chopped fresh sage'
p6183
aS'salt and freshly ground black pepper'
p6184
aS'vegetable oil'
p6185
atp6186
tp6187
Rp6188
sS'How to cook mussels'
p6189
g2
(g3
g4
(S'http://www.bbc.co.uk/food/recipes/musselswithwineandpa_90229'
p6190
S'Mitch Tonks'
p6191
(lp6192
S'mussels'
p6193
aS'drizzle olive oil'
p6194
aS'shallot'
p6195
aS'garlic cloves'
p6196
aS'dry white wine'
p6197
aS'of fresh parsley'
p6198
aS'crusty bread'
p6199
atp6200
tp6201
Rp6202
sS'Mutton chops with potato and turnip gratin'
p6203
g2
(g3
g4
(S'http://www.bbc.co.uk/food/recipes/mutton_chops_with_potato_75289'
p6204
S'Tom Kerridge'
p6205
(lp6206
S'plain flour'
p6207
aS'free-range eggs'
p6208
aS'Japanese panko breadcrumbs'
p6209
aS'mutton chops, French-trimmed (ask your butcher to do this for you'
p6210
aS'vegetable oil'
p6211
aS'knob of unsalted butter'
p6212
aS'squeeze lemon juice'
p6213
aS'sea salt flakes'
p6214
aS'onions'
p6215
aS'pointed cabbage (such as hispi cabbage), root removed'
p6216
aS'double cream'
p6217
aS'floury potatoes, such as Maris Piper, peeled'
p6218
aS'large turnips'
p6219
aS'garlic cloves'
p6220
aS'duck egg'
p6221
aS'Dijon mustard'
p6222
aS'red wine vinegar'
p6223
aS'salt'
p6224
aS'sugar'
p6225
aS'English mustard powder'
p6226
aS'smoked paprika'
p6227
aS'olive oil'
p6228
aS'chopped cornichons'
p6229
aS'fine capers'
p6230
aS'chopped fresh flatleaf parsley'
p6231
aS'salt and freshly ground white pepper'
p6232
atp6233
tp6234
Rp6235
sS'Venison pie with red onion marmalade'
p6236
g2
(g3
g4
(S'http://www.bbc.co.uk/food/recipes/venisonpiewithredoni_89186'
p6237
S'James Martin'
p6238
(lp6239
S'plain flour'
p6240
aS'salt'
p6241
aS'lard'
p6242
aS'milk'
p6243
aS'water'
p6244
aS'olive oil'
p6245
aS'banana shallots'
p6246
aS'garlic clove'
p6247
aS'minced venison'
p6248
aS'free-range eggs'
p6249
aS'ground juniper berries'
p6250
aS'ground cloves'
p6251
aS'thyme leaves'
p6252
aS'flatleaf parsley'
p6253
aS'salt and freshly ground black pepper'
p6254
aS'venison steak'
p6255
aS'leaf gelatine'
p6256
aS'chicken stock'
p6257
aS'bay leaf'
p6258
aS'peppercorns'
p6259
aS'butter'
p6260
aS'red onion'
p6261
aS'garlic clove'
p6262
aS'caster sugar'
p6263
aS'thyme leaves'
p6264
aS'red wine'
p6265
aS'good red wine vinegar'
p6266
atp6267
tp6268
Rp6269
sS'Baked raspberry cheesecake'
p6270
g2
(g3
g4
(S'http://www.bbc.co.uk/food/recipes/bakedraspberrycheese_86567'
p6271
S'James Martin'
p6272
(lp6273
S'ready-made sponge base'
p6274
aS'raspberry liqueur'
p6275
aS'caster sugar'
p6276
aS'lemon'
p6277
aS'cornflour'
p6278
aS'full-fat cream cheese'
p6279
aS'free-range eggs'
p6280
aS'vanilla pod'
p6281
aS'double cream'
p6282
aS'raspberries'
p6283
aS'white chocolate'
p6284
aS'raspberries'
p6285
aS'raspberry liqueur'
p6286
aS'lemon'
p6287
aS'icing sugar'
p6288
aS'double cream, lightly whipped'
p6289
atp6290
tp6291
Rp6292
sS'Quick apricot, apple and pecan loaf cake'
p6293
g2
(g3
g4
(S'http://www.bbc.co.uk/food/recipes/quickapricotappleand_67261'
p6294
S'Delia Smith'
p6295
(lp6296
S'ready-to-eat apricots'
p6297
aS'cooking apple medium apple)'
p6298
aS'pecan nuts'
p6299
aS'of salt'
p6300
aS'level baking powder'
p6301
aS'rounded cinnamon'
p6302
aS'plain flour'
p6303
aS'wholewheat flour'
p6304
aS'butter'
p6305
aS'soft brown sugar'
p6306
aS'eggs'
p6307
aS'milk'
p6308
aS'cubes demerara sugar'
p6309
aS'level ground cinnamon'
p6310
atp6311
tp6312
Rp6313
sS'Grilled aubergines with miso'
p6314
g2
(g3
g4
(S'http://www.bbc.co.uk/food/recipes/grilledaubergineswit_90214'
p6315
S'Paul Merrett'
p6316
(lp6317
S'Japanese aubergines or large purple aubergine'
p6318
aS'vegetable oil'
p6319
aS'spring onions'
p6320
aS'light (sweet) miso paste (available in some supermarkets and in Asian grocers)'
p6321
aS'sugar'
p6322
aS'small knob fresh ginger'
p6323
aS'shoyu or light soy sauce'
p6324
aS'mirin'
p6325
atp6326
tp6327
Rp6328
sS'Blackberry fool with hazelnut biscuits'
p6329
g2
(g3
g4
(S'http://www.bbc.co.uk/food/recipes/blackberry_fool_with_11859'
p6330
S'The Hairy Bikers'
p6331
(lp6332
S'blanched hazelnuts'
p6333
aS'butter'
p6334
aS'caster sugar'
p6335
aS'unwaxed lemon'
p6336
aS'plain flour'
p6337
aS'baking powder'
p6338
aS'fresh blackberries'
p6339
aS'preserving sugar'
p6340
aS'caster sugar'
p6341
aS'fresh lemon juice'
p6342
aS'double cream'
p6343
aS'plain natural yoghurt'
p6344
aS'fresh mint leaves'
p6345
atp6346
tp6347
Rp6348
sS'Spaghettini Molly Malone'
p6349
g2
(g3
g4
(S'http://www.bbc.co.uk/food/recipes/spaghettinimollymalo_70259'
p6350
S'Paul Rankin'
p6351
(lp6352
S'large red chilli'
p6353
aS'garlic cloves'
p6354
aS'extra-virgin olive oil'
p6355
aS'cockles'
p6356
aS'mussels'
p6357
aS'dry white wine'
p6358
aS'onion'
p6359
aS'fresh parsley stalks'
p6360
aS'packet of spaghettini'
p6361
aS'roughly chopped fresh parsley'
p6362
atp6363
tp6364
Rp6365
sS'Pheasant Kiev with broad beans, peas, tarragon and cobnut salad'
p6366
g2
(g3
g4
(S'http://www.bbc.co.uk/food/recipes/pheasant_kiev_with_a_34098'
p6367
S'James Martin'
p6368
(lp6369
S'garlic bulb'
p6370
aS'double cream'
p6371
aS'fresh chives'
p6372
aS'pheasant breasts'
p6373
aS'plain flour'
p6374
aS'dried sourdough breadcrumbs'
p6375
aS'free-range eggs'
p6376
aS'vegetable oil'
p6377
aS'ready-made French dressing'
p6378
aS'clear honey'
p6379
aS'white balsamic vinegar'
p6380
aS'vegetable oil'
p6381
aS'diced shallot'
p6382
aS'garlic clove'
p6383
aS'chopped fresh parsley leaves'
p6384
aS'chopped fresh chives'
p6385
aS'chopped fresh basil leaves'
p6386
aS'chopped fresh thyme leaves'
p6387
aS'broad beans'
p6388
aS'fresh peas'
p6389
aS'rapeseed oil'
p6390
aS'fresh cobnuts'
p6391
aS'salt'
p6392
aS'chopped baby red chard'
p6393
aS'head frisee lettuce (or similar bitter, frilly-edged lettuce)'
p6394
aS'lambs lettuce leaves'
p6395
aS'tarragon leaves'
p6396
atp6397
tp6398
Rp6399
sS'Turkish kofta kebabs with minted yoghurt and kohlrabi and carrot salad'
p6400
g2
(g3
g4
(S'http://www.bbc.co.uk/food/recipes/turkishkoftakebabswi_71862'
p6401
S'Rick Stein'
p6402
(lp6403
S'minced lamb'
p6404
aS'onions'
p6405
aS'garlic cloves'
p6406
aS'dried chilli flakes'
p6407
aS'small of flatleaf parsley'
p6408
aS'oil for brushing'
p6409
aS'vine-ripened tomatoes'
p6410
aS'salt'
p6411
aS'freshly ground black pepper'
p6412
aS'Greek natural yoghurt'
p6413
aS'chopped mint'
p6414
aS'large carrots'
p6415
aS'kohlrabi'
p6416
aS'sunflower oil'
p6417
aS'cumin seeds'
p6418
aS'lemon juice'
p6419
atp6420
tp6421
Rp6422
sS'Rich chocolate pots with brandy-soaked cherries'
p6423
g2
(g3
g4
(S'http://www.bbc.co.uk/food/recipes/richchocolatepotswit_93633'
p6424
S'Sophie Dahl'
p6425
(lp6426
S'golden caster sugar'
p6427
aS'fresh cherries'
p6428
aS'cherry brandy'
p6429
aS'single cream'
p6430
aS'good quality dark chocolate, preferably cocoa, broken into pieces'
p6431
aS'large free-range egg yolks'
p6432
atp6433
tp6434
Rp6435
sS'Game pie'
p6436
g2
(g3
g4
(S'http://www.bbc.co.uk/food/recipes/gamepie_93146'
p6437
S'The Hairy Bikers'
p6438
(lp6439
S'plain flour'
p6440
aS'baking powder'
p6441
aS'unsalted butter'
p6442
aS'lard'
p6443
aS'free-range egg yolk'
p6444
aS'salt'
p6445
aS'water'
p6446
aS'vegetable oil'
p6447
aS'mixed game meat (venison, pheasant, rabbit, squirrell)'
p6448
aS'venison steak'
p6449
aS'streaky bacon'
p6450
aS'large onions'
p6451
aS'stick celery'
p6452
aS'chestnut mushrooms'
p6453
aS'plain flour'
p6454
aS'bay leaves'
p6455
aS'redcurrant jelly'
p6456
aS'beef stock'
p6457
aS'red wine'
p6458
aS'chopped fresh thyme'
p6459
aS'sea salt flakes and freshly ground black pepper'
p6460
aS'packet ready-rolled puff pastry'
p6461
aS'free-range egg'
p6462
atp6463
tp6464
Rp6465
sS'Summer berry trifle'
p6466
g2
(g3
g4
(S'http://www.bbc.co.uk/food/recipes/summerberrytrifle_93217'
p6467
S'The Hairy Bikers'
p6468
(lp6469
S'x packet raspberry or strawberry jelly'
p6470
aS'ready-made jam-filled Swiss roll'
p6471
aS'cream sherry'
p6472
aS'blueberries'
p6473
aS'raspberries'
p6474
aS'strawberries'
p6475
aS'milk'
p6476
aS'double cream'
p6477
aS'vanilla pod, split'
p6478
aS'cornflour'
p6479
aS'cold water'
p6480
aS'large free-range egg yolks'
p6481
aS'caster sugar'
p6482
aS'flaked almonds'
p6483
aS'double cream'
p6484
atp6485
tp6486
Rp6487
sS'Blue cheese and fig tarts'
p6488
g2
(g3
g4
(S'http://www.bbc.co.uk/food/recipes/blue_cheese_and_fig_34219'
p6489
S'Mary Berry'
p6490
(lp6491
S'sheets filo pastry (measuring square)'
p6492
aS'a little melted butter'
p6493
aS'ripe figs'
p6494
aS'creamy blue cheese such as dolcelatte or roquefort'
p6495
aS'lemon juice'
p6496
aS'sage leaves'
p6497
aS'sprinkling of ground paprika'
p6498
atp6499
tp6500
Rp6501
sS'Salad of radicchio, chicory and rocket'
p6502
g2
(g3
g4
(S'http://www.bbc.co.uk/food/recipes/saladofradicciochico_67562'
p6503
S'James Martin'
p6504
(lp6505
S'head radicchio'
p6506
aS'chicory cut in pieces'
p6507
aS'of rocket leaves'
p6508
aS'extra virgin olive oil'
p6509
aS'aged red wine vinegar'
p6510
aS'Dijon mustard'
p6511
aS'shallot'
p6512
aS'salt and freshly ground black pepper'
p6513
atp6514
tp6515
Rp6516
sS'Turkey breast stuffed with Italian sausage and Marsala-steeped cranberries'
p6517
g2
(g3
g4
(S'http://www.bbc.co.uk/food/recipes/turkey_breast_stuffed_43707'
p6518
S'Nigella Lawson'
p6519
(lp6520
S'dried cranberries'
p6521
aS'Marsala'
p6522
aS'olive oil'
p6523
aS'banana shallots'
p6524
aS'ground cloves'
p6525
aS'ground allspice'
p6526
aS'chopped fresh sage'
p6527
aS'Italian sausages'
p6528
aS'free-range eggs'
p6529
aS'parmesan'
p6530
aS'breadcrumbs'
p6531
aS'double breast turkey joint, boned, butterflied'
p6532
aS'duck or goose fat'
p6533
atp6534
tp6535
Rp6536
sS'Fillet of venison and wild mushroom sauce'
p6537
g2
(g3
g4
(S'http://www.bbc.co.uk/food/recipes/filletofvenisonandwi_89763'
p6538
S'Antonio Carluccio'
p6539
(lp6540
S'venison fillet'
p6541
aS'extra virgin olive oil'
p6542
aS'balsamic vinegar'
p6543
aS'carrot'
p6544
aS'onion'
p6545
aS'salt and freshly ground black pepper'
p6546
aS'unsalted butter'
p6547
aS'small onions'
p6548
aS'dried morels, soaked in warm water for hours'
p6549
aS'fresh porcini mushrooms'
p6550
aS'balsamic vinegar (aged for years)'
p6551
aS'dry sherry'
p6552
aS'double cream'
p6553
aS'salt and freshly ground black pepper'
p6554
aS'summer truffle'
p6555
atp6556
tp6557
Rp6558
sS"Poached 'cannelloni' of skate with pea risotto, asparagus and morels"
p6559
g2
(g3
g4
(S'http://www.bbc.co.uk/food/recipes/poached_cannelloni_of_47313'
p6560
S'Mark Jordan'
p6561
(lp6562
S'vegetable stock'
p6563
aS'olive oil'
p6564
aS'shallot'
p6565
aS'garlic clove'
p6566
aS'risotto rice'
p6567
aS'white wine'
p6568
aS'shelled garden peas'
p6569
aS'double cream'
p6570
aS'parmesan'
p6571
aS'finely chopped chives'
p6572
aS'finely chopped flatleaf parsley'
p6573
aS'skate wing'
p6574
aS'x asparagus'
p6575
aS'butter'
p6576
aS'small morel mushrooms'
p6577
aS'baby spinach leaves'
p6578
aS'lemon'
p6579
aS'x punnet pea shoots'
p6580
aS'x punnet purple cress'
p6581
atp6582
tp6583
Rp6584
sS'Slow-cooked vegetables'
p6585
g2
(g3
g4
(S'http://www.bbc.co.uk/food/recipes/slow-roast_vegetables_98940'
p6586
S'Raymond Blanc'
p6587
(lp6588
S'extra virgin rapeseed oil'
p6589
aS'garlic cloves (about'
p6590
aS'red onion, quartered'
p6591
aS'fennel'
p6592
aS'violet artichoke hearts'
p6593
aS'baby chicory'
p6594
aS'sea salt and freshly ground black pepper'
p6595
aS'sprigs thyme'
p6596
aS'rosemary'
p6597
aS'bay leaves'
p6598
aS'sage leaves'
p6599
aS'balsamic vinegar'
p6600
aS'pumpkin seeds'
p6601
aS'parmesan shavings'
p6602
aS'air-dried ham (such as Bayonne or Parma ham)'
p6603
aS'rye bread croutons'
p6604
atp6605
tp6606
Rp6607
sS'Fregola con arselle (Sardinian pasta and clam soup)'
p6608
g2
(g3
g4
(S'http://www.bbc.co.uk/food/recipes/fregolaconarsellesar_89307'
p6609
S'Sophie Grigson'
p6610
(lp6611
S'extra virgin olive oil'
p6612
aS'garlic cloves'
p6613
aS'chopped parsley'
p6614
aS'chilli flakes'
p6615
aS'pints fish stock'
p6616
aS'medium tomatoes, skins removed'
p6617
aS'fregola pasta'
p6618
aS'small clams'
p6619
aS'large saffron'
p6620
aS'lemon'
p6621
atp6622
tp6623
Rp6624
sS'Strawberry jam'
p6625
g2
(g3
g4
(S'http://www.bbc.co.uk/food/recipes/strawberryjam_90294'
p6626
S'Sophie Grigson'
p6627
(lp6628
S'strawberries'
p6629
aS'granulated sugar or caster sugar'
p6630
aS'lemon'
p6631
aS'small knob of butter'
p6632
atp6633
tp6634
Rp6635
sS'Parsnip and chestnut soup'
p6636
g2
(g3
g4
(S'http://www.bbc.co.uk/food/recipes/parsnip_and_chestnut_03556'
p6637
S'Bryn Williams'
p6638
(lp6639
S'unsalted butter'
p6640
aS'parsnips'
p6641
aS'small leek'
p6642
aS'white wine'
p6643
aS'cooked chestnuts (sold vacuum-packed)'
p6644
aS'pints vegetable stock (preferably homemade)'
p6645
aS'salt and freshly ground black pepper'
p6646
aS'scallops'
p6647
atp6648
tp6649
Rp6650
sS'Chorizo and couscous stuffed marrow'
p6651
g2
(g3
g4
(S'http://www.bbc.co.uk/food/recipes/chorizopepperandcous_75307'
p6652
S'Antony Worrall Thompson'
p6653
(lp6654
S'large marrow'
p6655
aS'couscous'
p6656
aS'lemon'
p6657
aS'olive oil'
p6658
aS'red onion'
p6659
aS'chorizo'
p6660
aS'roasted red pepper'
p6661
aS'vine ripened tomatoes'
p6662
aS'parsley'
p6663
aS'mint'
p6664
aS'coriander'
p6665
aS'salt and freshly ground black pepper'
p6666
atp6667
tp6668
Rp6669
sS'Cucumber soup with pickled cucumber'
p6670
g2
(g3
g4
(S'http://www.bbc.co.uk/food/recipes/cucumber_soup_with_91798'
p6671
S'Matt Tebbutt'
p6672
(lp6673
S'cucumber'
p6674
aS'salt'
p6675
aS'rice wine vinegar'
p6676
aS'caster sugar'
p6677
aS'red chilli, seeds removed'
p6678
aS'coriander seeds, toasted in a dry frying pan'
p6679
aS'finely chopped fresh mint leaves'
p6680
aS'finely chopped fresh coriander leaves'
p6681
aS'salt and freshly ground black pepper'
p6682
aS'olive oil'
p6683
aS'banana shallots'
p6684
aS'garlic clove'
p6685
aS'piece fresh root ginger'
p6686
aS'red chilli'
p6687
aS'cucumbers, each halved lengthways, seeds scooped out with a spoon'
p6688
aS'vegetable stock'
p6689
aS'salt and freshly ground black pepper'
p6690
aS'lemon'
p6691
aS'extra virgin olive oil'
p6692
atp6693
tp6694
Rp6695
sS'Summer vegetable soup'
p6696
g2
(g3
g4
(S'http://www.bbc.co.uk/food/recipes/summer_vegetable_soup_10343'
p6697
S'The Hairy Bikers'
p6698
(lp6699
S'fresh basil'
p6700
aS'olive oil (not extra virgin)'
p6701
aS'large ripe vine tomatoes, skinned, quartered'
p6702
aS'olive oil (not extra virgin)'
p6703
aS'small onion'
p6704
aS'stick celery'
p6705
aS'garlic cloves'
p6706
aS'slender, young leek'
p6707
aS'small courgettes'
p6708
aS'pints chicken stock'
p6709
aS'dried spaghetti'
p6710
aS'tomato puree'
p6711
aS'fresh peas (or frozen out of season)'
p6712
aS'freshly podded baby broad beans (or frozen out of season)'
p6713
aS'green beans'
p6714
aS'flaked sea salt and freshly ground black pepper'
p6715
aS'parmesan'
p6716
atp6717
tp6718
Rp6719
sS'Quick hot and sour noodle soup'
p6720
g2
(g3
g4
(S'http://www.bbc.co.uk/food/recipes/quickhotandsournoodl_89280'
p6721
S'Ching-He Huang'
p6722
(lp6723
S'groundnut oil'
p6724
aS'piece fresh root ginger'
p6725
aS'handfuls fresh shiitake mushrooms'
p6726
aS'red chilli, de-seeded'
p6727
aS'Shaoxing rice wine or dry sherry'
p6728
aS'pint vegetable stock'
p6729
aS'canned bamboo shoots'
p6730
aS'light soy sauce'
p6731
aS'dark soy sauce'
p6732
aS'Chinese black rice vinegar or balsamic vinegar'
p6733
aS'ground white pepper'
p6734
aS'cornflour mixed with tbsp cold water'
p6735
aS'cooked egg noodles'
p6736
aS'small handfuls beansprouts'
p6737
aS'baby sweetcorn'
p6738
aS'spring onion'
p6739
aS'cooked chicken'
p6740
atp6741
tp6742
Rp6743
sS'Rhubarb fool'
p6744
g2
(g3
g4
(S'http://www.bbc.co.uk/food/recipes/rhubarbfool_71270'
p6745
S'Antony Worrall Thompson'
p6746
(lp6747
S'rhubarb'
p6748
aS'caster sugar'
p6749
aS'orange'
p6750
aS'water'
p6751
aS'pint cream'
p6752
aS'egg white'
p6753
atp6754
tp6755
Rp6756
sS'Warm ginger cake with rhubarb'
p6757
g2
(g3
g4
(S'http://www.bbc.co.uk/food/recipes/warm_ginger_cake_with_38189'
p6758
S'John Calton'
p6759
(lp6760
S'gelatine leaf'
p6761
aS'rhubarb'
p6762
aS'caster sugar'
p6763
aS'liquid glucose'
p6764
aS'water'
p6765
aS'lemon'
p6766
aS'red food colouring (optional)'
p6767
aS'granulated sugar'
p6768
aS'water'
p6769
aS'lemon'
p6770
aS'vanilla pod'
p6771
aS'stalks pink rhubarb'
p6772
aS'unsalted butter, softened'
p6773
aS'caster sugar'
p6774
aS'free-range eggs'
p6775
aS'plain flour'
p6776
aS'ground almonds'
p6777
aS'ground ginger'
p6778
aS'stem ginger in syrup (from a jar)'
p6779
aS'plain yoghurt'
p6780
aS'vanilla pod'
p6781
aS'lime'
p6782
atp6783
tp6784
Rp6785
sS'Scallops with truffle mash'
p6786
g2
(g3
g4
(S'http://www.bbc.co.uk/food/recipes/scallopswithtrufflem_85884'
p6787
S'Angela Griffin'
p6788
(lp6789
S'potatoes'
p6790
aS'knob butter'
p6791
aS'milk'
p6792
aS'salt and white pepper'
p6793
aS'truffle oil'
p6794
aS'large scallops (with or without roes'
p6795
aS'olive oil'
p6796
atp6797
tp6798
Rp6799
sS'Chermoula-baked sea bass with quinoa, tomatillo and preserved lemon salad, spiced toasted seeds and tahini cream'
p6800
g2
(g3
g4
(S'http://www.bbc.co.uk/food/recipes/chermoulabakedseabas_93826'
p6801
S'Anna Hansen'
p6802
(lp6803
S'olive oil'
p6804
aS'red onion, peeled'
p6805
aS'sweet smoked paprika'
p6806
aS'sherry vinegar'
p6807
aS'quinoa (uncooked weight)'
p6808
aS'medium tomatillos'
p6809
aS'preserved lemon rind, pulp removed'
p6810
aS'chopped fresh coriander, plus extra whole leaves'
p6811
aS'finely chopped fresh mint leaves'
p6812
aS'lime'
p6813
aS'olive oil'
p6814
aS'fresh curry leaves'
p6815
aS'fennel seeds'
p6816
aS'poppy seeds'
p6817
aS'kalonji (black onion) seeds or nigella seeds'
p6818
aS'black mustard seeds'
p6819
aS'sunflower seeds'
p6820
aS'pumpkin seeds'
p6821
aS'amchur (dried, ground'
p6822
aS'salt'
p6823
aS'x sea bass fillets'
p6824
aS'cumin seeds, toasted'
p6825
aS'coriander seeds, toasted'
p6826
aS'sweet smoked paprika'
p6827
aS'dried chilli flakes'
p6828
aS'fresh root ginger, peeled'
p6829
aS'fresh turmeric, peeled'
p6830
aS'garlic cloves, peeled'
p6831
aS'banana shallot, peeled'
p6832
aS'lemons'
p6833
aS'flatleaf parsley leaves'
p6834
aS'fresh coriander'
p6835
aS'salt'
p6836
aS'extra virgin olive oil'
p6837
aS'olive oil'
p6838
aS'tahini'
p6839
aS'lemons'
p6840
aS'water'
p6841
aS'salt'
p6842
aS'mustard'
p6843
aS'drizzle extra virgin olive oil'
p6844
aS'lime'
p6845
atp6846
tp6847
Rp6848
sS'Seafood pearl barley paella'
p6849
g2
(g3
g4
(S'http://www.bbc.co.uk/food/recipes/seafood_paella_79673'
p6850
S'The Hairy Bikers'
p6851
(lp6852
S'squid, cleaned'
p6853
aS'olive oil'
p6854
aS'red onions, peeled'
p6855
aS'garlic cloves, peeled'
p6856
aS'chorizo'
p6857
aS'pearl barley (soaked in a bowl of cold water for six hours'
p6858
aS'large saffron strands'
p6859
aS'padron peppers (available from Spanish delicatessens'
p6860
aS'red pepper, stalk and seeds removed'
p6861
aS'cherry tomatoes'
p6862
aS'chargrilled artichokes (from a jar)'
p6863
aS'sweet smoked paprika'
p6864
aS'pint warm chicken or vegetable stock'
p6865
aS'grey mullet fillets, skin removed'
p6866
aS'large prawns, peeled, removed'
p6867
aS'fresh mussels, rinsed, scrubbed'
p6868
aS'lemon wedges'
p6869
atp6870
tp6871
Rp6872
sS'Seared scallops with crab, cucumber, lime and vanilla'
p6873
g2
(g3
g4
(S'http://www.bbc.co.uk/food/recipes/searedscallopswithcr_88761'
p6874
S'Bryn Williams'
p6875
(lp6876
S'egg yolks'
p6877
aS'white wine vinegar'
p6878
aS'Dijon mustard'
p6879
aS'extra virgin olive oil'
p6880
aS'rapeseed oil'
p6881
aS'salt and freshly ground black pepper'
p6882
aS'white crabmeat'
p6883
aS'finely chopped chives'
p6884
aS'cucumber'
p6885
aS'vanilla pods'
p6886
aS'limes'
p6887
aS'caster sugar'
p6888
aS'extra virgin olive oil'
p6889
aS'salt and freshly ground black pepper'
p6890
aS'large scallops'
p6891
aS'butter'
p6892
aS'punnet basil cress'
p6893
atp6894
tp6895
Rp6896
sS'Goats saddle with artichokes, morels and wild garlic'
p6897
g2
(g3
g4
(S'http://www.bbc.co.uk/food/recipes/goats_saddle_with_45211'
p6898
S'Angela Hartnett'
p6899
(lp6900
S'salted butter'
p6901
aS"goat's rack and short saddle (aged for weeks)"
p6902
aS'artichokes, trimmed, chokes removed'
p6903
aS'morel mushrooms'
p6904
aS'salt and black pepper'
p6905
aS'lazy garlic garlic clove blended with tsp olive oil)'
p6906
aS'sherry vinegar'
p6907
aS'gravy'
p6908
aS'wild garlic'
p6909
atp6910
tp6911
Rp6912
sS'Globe artichoke with Dijon mustard'
p6913
g2
(g3
g4
(S'http://www.bbc.co.uk/food/recipes/globeartichokewithdi_83912'
p6914
S'Alan Bennett'
p6915
(lp6916
S'medium globe artichoke'
p6917
aS'lemon'
p6918
aS'red wine vinegar'
p6919
aS'heaped Dijon mustard'
p6920
aS'salt and freshly ground black pepper'
p6921
aS'olive oil'
p6922
atp6923
tp6924
Rp6925
sS'Clementine custard tart'
p6926
g2
(g3
g4
(S'http://www.bbc.co.uk/food/recipes/clementine_custard_tart_77764'
p6927
S'Simon Rimmer'
p6928
(lp6929
S'single cream'
p6930
aS'ground cinnamon'
p6931
aS'vanilla pod'
p6932
aS'free-range eggs'
p6933
aS'caster sugar'
p6934
aS'clementines, peeled'
p6935
aS'x blind-baked shortcrust tart case'
p6936
atp6937
tp6938
Rp6939
sS'Sprouts, bacon and almonds'
p6940
g2
(g3
g4
(S'http://www.bbc.co.uk/food/recipes/sprouts_bacon_and_70811'
p6941
S'Nigel Slater'
p6942
(lp6943
S'rashers smoked streaky bacon'
p6944
aS'butter'
p6945
aS'Brussels sprouts'
p6946
aS'almonds'
p6947
atp6948
tp6949
Rp6950
sS'Sri Lankan turkey curry'
p6951
g2
(g3
g4
(S'http://www.bbc.co.uk/food/recipes/srilankanturkeycurry_92946'
p6952
S'Rick Stein'
p6953
(lp6954
S'uncooked long grain or basmati rice'
p6955
aS'coriander seeds'
p6956
aS'cumin seeds'
p6957
aS'fennel seeds'
p6958
aS'piece cinnamon stick'
p6959
aS'fenugreek seeds'
p6960
aS'cloves'
p6961
aS'cardamom seeds (from about green cardamom pods)'
p6962
aS'black mustard seeds'
p6963
aS'black peppercorns'
p6964
aS'dried red Kashmiri chillies'
p6965
aS'coconut or vegetable oil'
p6966
aS'cinnamon stick'
p6967
aS'cardamom pods'
p6968
aS'cloves'
p6969
aS'onions or shallots, peeled, cut in half'
p6970
aS'garlic, peeled'
p6971
aS'fresh root ginger, peeled'
p6972
aS'roasted Sri Lankan curry powder (see above)'
p6973
aS'Kashmiri chilli powder'
p6974
aS'ground turmeric'
p6975
aS'canned chopped tomatoes'
p6976
aS'fresh curry leaves'
p6977
aS'x pieces pandan leaf (available from some Asian grocers)'
p6978
aS'fat lemongrass stalk, tough outer leaves removed, cut in half'
p6979
aS'green cayenne chillies'
p6980
aS'salt'
p6981
aS'canned coconut milk'
p6982
aS'cold cooked turkey'
p6983
aS'freshly squeezed lime juice'
p6984
aS'salt and freshly ground black pepper'
p6985
aS'steamed rice'
p6986
atp6987
tp6988
Rp6989
sS'Greengage meringues with cream'
p6990
g2
(g3
g4
(S'http://www.bbc.co.uk/food/recipes/greengage_meringues_with_90358'
p6991
S'James Martin'
p6992
(lp6993
S'greengages, stones removed'
p6994
aS'caster sugar'
p6995
aS'egg whites'
p6996
aS'icing sugar'
p6997
aS'double cream'
p6998
aS'vanilla pod, split in half lengthways'
p6999
atp7000
tp7001
Rp7002
sS'Wild sea bass poached in red wine with creamed cavolo nero, ceps and crisp oysters'
p7003
g2
(g3
g4
(S'http://www.bbc.co.uk/food/recipes/wildseabasspoachedin_87456'
p7004
S'Jun Tanaka'
p7005
(lp7006
S'red port'
p7007
aS'red wine'
p7008
aS'bay leaf'
p7009
aS'black peppercorns'
p7010
aS'cardamom pods'
p7011
aS'star anis'
p7012
aS'cinnamon stick'
p7013
aS'coriander seeds'
p7014
aS'fillet from a wild sea bass'
p7015
aS'vegetable oil'
p7016
aS'cavolo nero cabbage leaves'
p7017
aS'double cream'
p7018
aS'garlic cloves'
p7019
aS'salt and freshly ground black pepper'
p7020
aS'olive oil'
p7021
aS'fresh ceps'
p7022
aS'butter'
p7023
aS'fresh oysters'
p7024
aS'plain flour'
p7025
aS'free-range eggs'
p7026
aS'breadcrumbs'
p7027
aS'Cabernet Sauvignon vinegar (or other good quality red wine vinegar)'
p7028
aS'butter'
p7029
atp7030
tp7031
Rp7032
sS'Poached eggs with wild mushrooms on toast'
p7033
g2
(g3
g4
(S'http://www.bbc.co.uk/food/recipes/poachedeggswithwildm_11200'
p7034
S'Curtis Stone'
p7035
(lp7036
S'butter'
p7037
aS'slices of brioche'
p7038
aS'white wine vinegar'
p7039
aS'water'
p7040
aS'eggs'
p7041
aS'banana shallots or onions'
p7042
aS'cloves garlic'
p7043
aS'girolles/chantrelles, trimmed'
p7044
aS'trompette de morte, trimmed'
p7045
aS'oyster mushrooms, trimmed'
p7046
aS'pied a mouton/bleu, trimmed'
p7047
aS'freshly chopped'
p7048
aS'salt and freshly ground black pepper'
p7049
atp7050
tp7051
Rp7052
sS'St Lucia buns'
p7053
g2
(g3
g4
(S'http://www.bbc.co.uk/food/recipes/pauls_st_lucia_buns_04825'
p7054
S'Paul Hollywood'
p7055
(lp7056
S'milk'
p7057
aS'saffron threads'
p7058
aS'unsalted butter'
p7059
aS'strong white bread flour'
p7060
aS'salt'
p7061
aS'x sachet instant yeast'
p7062
aS'caster sugar'
p7063
aS'quark cheese'
p7064
aS'vegetable oil'
p7065
aS'free-range egg yolk'
p7066
aS'raisins'
p7067
atp7068
tp7069
Rp7070
sS'Apricot, chestnut and aduki balls with roasted vegetables and white wine miso gravy'
p7071
g2
(g3
g4
(S'http://www.bbc.co.uk/food/recipes/apricot_chestnut_and_76988'
p7072
S'Hemsley + Hemsley'
p7073
(lp7074
S'Brussels sprouts'
p7075
aS'large carrots, peeled, trimmed'
p7076
aS'red onions'
p7077
aS'large parsnips, peeled, trimmed'
p7078
aS'heaped coconut oil'
p7079
aS'handul chopped fresh herbs'
p7080
aS'salt and freshly ground black pepper'
p7081
aS'coconut oil'
p7082
aS'ground cumin'
p7083
aS'ground turmeric'
p7084
aS'ground cinnamon'
p7085
aS'large onion'
p7086
aS'garlic cloves'
p7087
aS'tin aduki beans'
p7088
aS'chestnut flour'
p7089
aS'dried, ready-to-eat apricots,preferably organic'
p7090
aS'chopped fresh flatleaf parsley'
p7091
aS'cayenne pepper (or tsp chopped fresh chilli)'
p7092
aS'salt'
p7093
aS'freshly ground black pepper'
p7094
aS'small white onions'
p7095
aS'white wine'
p7096
aS'tamari'
p7097
aS'unpasteurised miso paste'
p7098
aS'small handul chopped fresh mixed herbs (optional)'
p7099
atp7100
tp7101
Rp7102
sS'Spiced beef stir fry wraps'
p7103
g2
(g3
g4
(S'http://www.bbc.co.uk/food/recipes/spicedbeefstirfrytop_89270'
p7104
S'Ching-He Huang'
p7105
(lp7106
S'beef fillet'
p7107
aS'groundnut oil'
p7108
aS'Shaoxing rice wine or dry sherry'
p7109
aS'light soy sauce'
p7110
aS'sea salt'
p7111
aS'large fresh coriander'
p7112
aS'spring onion'
p7113
aS'wasabi paste (available from some supermarkets and Asian grocers)'
p7114
aS'mayonnaise'
p7115
aS'caster sugar'
p7116
aS'ground cumin (to taste)'
p7117
aS'dried chilli flakes (to taste)'
p7118
aS'ground black pepper'
p7119
aS'sea salt'
p7120
aS'warm flour tortilla wraps'
p7121
atp7122
tp7123
Rp7124
sS'BBQ chicken wings with sweetcorn rice and red cabbage slaw'
p7125
g2
(g3
g4
(S'http://www.bbc.co.uk/food/recipes/bbq_chicken_wings_with_11785'
p7126
S'Lorraine Pascale'
p7127
(lp7128
S'mixed chicken wings and drumsticks'
p7129
aS'squidges of tomato ketchup'
p7130
aS'balsamic vinegar'
p7131
aS'soy sauce'
p7132
aS'Chinese five-spice powder'
p7133
aS'squidges of honey'
p7134
aS'garlic clove'
p7135
aS'few sprigs fresh thyme'
p7136
aS'sunflower oil'
p7137
aS'head of red cabbage'
p7138
aS'small red onion'
p7139
aS'small red chilli'
p7140
aS'a big of raisins'
p7141
aS'of English mustard powder (optional)'
p7142
aS'squidges of honey'
p7143
aS'Greek yoghurt'
p7144
aS'lime'
p7145
aS'easy-cook long grain rice'
p7146
aS'can sweetcorn'
p7147
aS'sunflower oil'
p7148
aS'large coriander or flat leaf parsley'
p7149
aS'salt and freshly ground black pepper'
p7150
atp7151
tp7152
Rp7153
sS'Chow mein'
p7154
g2
(g3
g4
(S'http://www.bbc.co.uk/food/recipes/chowmein_74002'
p7155
S'Ken Hom'
p7156
(lp7157
S'egg noodles'
p7158
aS'sesame oil'
p7159
aS'chicken breast'
p7160
aS'finely chopped garlic'
p7161
aS'mangetout'
p7162
aS'Parma ham or cooked ham'
p7163
aS'light soy sauce'
p7164
aS'dark soy sauce'
p7165
aS'Shaoxing rice wine or dry sherry'
p7166
aS'salt'
p7167
aS'freshly ground white pepper'
p7168
aS'sugar'
p7169
aS'finely chopped spring onions'
p7170
aS'sesame oil'
p7171
aS'light soy sauce'
p7172
aS'Shaoxing rice wine or dry sherry'
p7173
aS'sesame oil'
p7174
aS'salt'
p7175
aS'freshly ground white pepper'
p7176
atp7177
tp7178
Rp7179
sS'Chicken with roasted garlic'
p7180
g2
(g3
g4
(S'http://www.bbc.co.uk/food/recipes/chickenwithroastedga_86095'
p7181
S'Neneh Cherry and Andi Oliver'
p7182
(lp7183
S'garlic, separated into cloves'
p7184
aS'rosemary'
p7185
aS'blood oranges'
p7186
aS'large chicken'
p7187
aS'good-quality French butter'
p7188
aS'bottle Cava'
p7189
aS'bottle Cava'
p7190
aS'bottle dry white wine (to taste)'
p7191
aS'knob butter'
p7192
aS'small fresh tarragon'
p7193
aS'salt and freshly ground black pepper'
p7194
atp7195
tp7196
Rp7197
sS'Strawberry souffle with strawberry sorbet and Welsh shortbread'
p7198
g2
(g3
g4
(S'http://www.bbc.co.uk/food/recipes/strawberrysoufflewit_85837'
p7199
S'Bryn Williams'
p7200
(lp7201
S'strawberries'
p7202
aS'caster sugar'
p7203
aS'vanilla pod'
p7204
aS'cornflour'
p7205
aS'soft butter'
p7206
aS'free-range egg whites'
p7207
aS'sifted icing sugar'
p7208
aS'caster sugar'
p7209
aS'boiling water'
p7210
aS'strawberries'
p7211
aS'soft slightly salted butter'
p7212
aS'icing sugar'
p7213
aS'plain flour'
p7214
aS'salt'
p7215
atp7216
tp7217
Rp7218
sS'Apple croustade with Armagnac custard'
p7219
g2
(g3
g4
(S'http://www.bbc.co.uk/food/recipes/apple_croustade_with_56799'
p7220
S'Nick Nairn'
p7221
(lp7222
S'caster sugar'
p7223
aS'butter'
p7224
aS'water'
p7225
aS'dried cranberries'
p7226
aS'sultanas'
p7227
aS'raisins'
p7228
aS"dessert apples, such as Cox's Orange Pippin, peeled"
p7229
aS'filo pastry'
p7230
aS'ground cinnamon'
p7231
aS'clementine'
p7232
aS'lemon'
p7233
aS'clarified butter'
p7234
aS'free-range egg yolks'
p7235
aS'caster sugar'
p7236
aS'milk'
p7237
aS'double cream'
p7238
aS'Armagnac'
p7239
atp7240
tp7241
Rp7242
sS'Lemony pork with French beans'
p7243
g2
(g3
g4
(S'http://www.bbc.co.uk/food/recipes/lemonyporkescalopesw_71453'
p7244
S"Ben O'Donoghue"
p7245
(lp7246
S'finely chopped thyme'
p7247
aS'garlic cloves'
p7248
aS'lemons'
p7249
aS'freshly ground black pepper'
p7250
aS'oregano'
p7251
aS'pork escalopes'
p7252
aS'French beans, tailed, blanched'
p7253
aS'canned butter beans'
p7254
aS'medium red onion'
p7255
aS'handfuls loosely packed basil leaves'
p7256
aS'chopped flatleaf parsley'
p7257
aS'olive oil'
p7258
aS'lemons'
p7259
aS'salt'
p7260
aS'freshly ground black pepper'
p7261
aS'loosely packed wild rocket'
p7262
atp7263
tp7264
Rp7265
s.